<?xml version="1.0"?>
<?xml-stylesheet type="text/xsl" href="pdml2html.xsl"?>
<!-- You can find pdml2html.xsl in /usr/share/wireshark or at http://anonsvn.wireshark.org/trunk/wireshark/pdml2html.xsl. -->
<pdml version="0" creator="wireshark/1.10.2" time="Fri Jan  3 21:03:47 2014" capture_file="/tmp/wireshark_pcapng_eth0_20140103205250_3OR1j3">
<packet>
  <proto name="geninfo" pos="0" showname="General information" size="90">
    <field name="num" pos="0" show="1529" showname="Number" value="5f9" size="90"/>
    <field name="len" pos="0" show="90" showname="Frame Length" value="5a" size="90"/>
    <field name="caplen" pos="0" show="90" showname="Captured Length" value="5a" size="90"/>
    <field name="timestamp" pos="0" show="Jan  3, 2014 21:01:56.446722000 NST" showname="Captured Time" value="1388795516.446722000" size="90"/>
  </proto>
  <proto name="frame" showname="Frame 1529: 90 bytes on wire (720 bits), 90 bytes captured (720 bits) on interface 0" size="90" pos="0">
    <field name="frame.interface_id" showname="Interface id: 0" size="0" pos="0" show="0"/>
    <field name="frame.encap_type" showname="Encapsulation type: Ethernet (1)" size="0" pos="0" show="1"/>
    <field name="frame.time" showname="Arrival Time: Jan  3, 2014 21:01:56.446722000 NST" size="0" pos="0" show="Jan  3, 2014 21:01:56.446722000"/>
    <field name="frame.offset_shift" showname="Time shift for this packet: 0.000000000 seconds" size="0" pos="0" show="0.000000000"/>
    <field name="frame.time_epoch" showname="Epoch Time: 1388795516.446722000 seconds" size="0" pos="0" show="1388795516.446722000"/>
    <field name="frame.time_delta" showname="Time delta from previous captured frame: 0.100964000 seconds" size="0" pos="0" show="0.100964000"/>
    <field name="frame.time_delta_displayed" showname="Time delta from previous displayed frame: 0.000000000 seconds" size="0" pos="0" show="0.000000000"/>
    <field name="frame.time_relative" showname="Time since reference or first frame: 537.473782000 seconds" size="0" pos="0" show="537.473782000"/>
    <field name="frame.number" showname="Frame Number: 1529" size="0" pos="0" show="1529"/>
    <field name="frame.len" showname="Frame Length: 90 bytes (720 bits)" size="0" pos="0" show="90"/>
    <field name="frame.cap_len" showname="Capture Length: 90 bytes (720 bits)" size="0" pos="0" show="90"/>
    <field name="frame.marked" showname="Frame is marked: True" size="0" pos="0" show="1"/>
    <field name="frame.ignored" showname="Frame is ignored: False" size="0" pos="0" show="0"/>
    <field name="frame.protocols" showname="Protocols in frame: eth:ip:udp:ntp" size="0" pos="0" show="eth:ip:udp:ntp"/>
    <field name="frame.coloring_rule.name" showname="Coloring Rule Name: UDP" size="0" pos="0" show="UDP"/>
    <field name="frame.coloring_rule.string" showname="Coloring Rule String: udp" size="0" pos="0" show="udp"/>
  </proto>
  <proto name="eth" showname="Ethernet II, Src: Pegatron_2f:4d:48 (4c:72:b9:2f:4d:48), Dst: AsustekC_f6:97:3e (e0:cb:4e:f6:97:3e)" size="14" pos="0">
    <field name="eth.dst" showname="Destination: AsustekC_f6:97:3e (e0:cb:4e:f6:97:3e)" size="6" pos="0" show="e0:cb:4e:f6:97:3e" value="e0cb4ef6973e">
      <field name="eth.addr" showname="Address: AsustekC_f6:97:3e (e0:cb:4e:f6:97:3e)" size="6" pos="0" show="e0:cb:4e:f6:97:3e" value="e0cb4ef6973e"/>
      <field name="eth.lg" showname=".... ..0. .... .... .... .... = LG bit: Globally unique address (factory default)" size="3" pos="0" show="0" value="0" unmaskedvalue="e0cb4e"/>
      <field name="eth.ig" showname=".... ...0 .... .... .... .... = IG bit: Individual address (unicast)" size="3" pos="0" show="0" value="0" unmaskedvalue="e0cb4e"/>
    </field>
    <field name="eth.src" showname="Source: Pegatron_2f:4d:48 (4c:72:b9:2f:4d:48)" size="6" pos="6" show="4c:72:b9:2f:4d:48" value="4c72b92f4d48">
      <field name="eth.addr" showname="Address: Pegatron_2f:4d:48 (4c:72:b9:2f:4d:48)" size="6" pos="6" show="4c:72:b9:2f:4d:48" value="4c72b92f4d48"/>
      <field name="eth.lg" showname=".... ..0. .... .... .... .... = LG bit: Globally unique address (factory default)" size="3" pos="6" show="0" value="0" unmaskedvalue="4c72b9"/>
      <field name="eth.ig" showname=".... ...0 .... .... .... .... = IG bit: Individual address (unicast)" size="3" pos="6" show="0" value="0" unmaskedvalue="4c72b9"/>
    </field>
    <field name="eth.type" showname="Type: IP (0x0800)" size="2" pos="12" show="0x0800" value="0800"/>
  </proto>
  <proto name="ip" showname="Internet Protocol Version 4, Src: 10.48.1.195 (10.48.1.195), Dst: 132.246.11.227 (132.246.11.227)" size="20" pos="14">
    <field name="ip.version" showname="Version: 4" size="1" pos="14" show="4" value="45"/>
    <field name="ip.hdr_len" showname="Header length: 20 bytes" size="1" pos="14" show="20" value="45"/>
    <field name="ip.dsfield" showname="Differentiated Services Field: 0x00 (DSCP 0x00: Default; ECN: 0x00: Not-ECT (Not ECN-Capable Transport))" size="1" pos="15" show="0" value="00">
      <field name="ip.dsfield.dscp" showname="0000 00.. = Differentiated Services Codepoint: Default (0x00)" size="1" pos="15" show="0x00" value="0" unmaskedvalue="00"/>
      <field name="ip.dsfield.ecn" showname=".... ..00 = Explicit Congestion Notification: Not-ECT (Not ECN-Capable Transport) (0x00)" size="1" pos="15" show="0x00" value="0" unmaskedvalue="00"/>
    </field>
    <field name="ip.len" showname="Total Length: 76" size="2" pos="16" show="76" value="004c"/>
    <field name="ip.id" showname="Identification: 0xc50e (50446)" size="2" pos="18" show="0xc50e" value="c50e"/>
    <field name="ip.flags" showname="Flags: 0x02 (Don&apos;t Fragment)" size="1" pos="20" show="0x02" value="40">
      <field name="ip.flags.rb" showname="0... .... = Reserved bit: Not set" size="1" pos="20" show="0" value="40"/>
      <field name="ip.flags.df" showname=".1.. .... = Don&apos;t fragment: Set" size="1" pos="20" show="1" value="40"/>
      <field name="ip.flags.mf" showname="..0. .... = More fragments: Not set" size="1" pos="20" show="0" value="40"/>
    </field>
    <field name="ip.frag_offset" showname="Fragment offset: 0" size="2" pos="20" show="0" value="4000"/>
    <field name="ip.ttl" showname="Time to live: 64" size="1" pos="22" show="64" value="40"/>
    <field name="ip.proto" showname="Protocol: UDP (17)" size="1" pos="23" show="17" value="11"/>
    <field name="ip.checksum" showname="Header checksum: 0xd8c6 [correct]" size="2" pos="24" show="0xd8c6" value="d8c6">
      <field name="ip.checksum_good" showname="Good: True" size="2" pos="24" show="1" value="d8c6"/>
      <field name="ip.checksum_bad" showname="Bad: False" size="2" pos="24" show="0" value="d8c6"/>
    </field>
    <field name="ip.src" showname="Source: 10.48.1.195 (10.48.1.195)" size="4" pos="26" show="10.48.1.195" value="0a3001c3"/>
    <field name="ip.addr" showname="Source or Destination Address: 10.48.1.195 (10.48.1.195)" hide="yes" size="4" pos="26" show="10.48.1.195" value="0a3001c3"/>
    <field name="ip.src_host" showname="Source Host: 10.48.1.195" hide="yes" size="4" pos="26" show="10.48.1.195" value="0a3001c3"/>
    <field name="ip.host" showname="Source or Destination Host: 10.48.1.195" hide="yes" size="4" pos="26" show="10.48.1.195" value="0a3001c3"/>
    <field name="ip.dst" showname="Destination: 132.246.11.227 (132.246.11.227)" size="4" pos="30" show="132.246.11.227" value="84f60be3"/>
    <field name="ip.addr" showname="Source or Destination Address: 132.246.11.227 (132.246.11.227)" hide="yes" size="4" pos="30" show="132.246.11.227" value="84f60be3"/>
    <field name="ip.dst_host" showname="Destination Host: 132.246.11.227" hide="yes" size="4" pos="30" show="132.246.11.227" value="84f60be3"/>
    <field name="ip.host" showname="Source or Destination Host: 132.246.11.227" hide="yes" size="4" pos="30" show="132.246.11.227" value="84f60be3"/>
    <field name="" show="Source GeoIP: Unknown" size="4" pos="26" value="0a3001c3"/>
    <field name="" show="Destination GeoIP: Unknown" size="4" pos="30" value="84f60be3"/>
  </proto>
  <proto name="udp" showname="User Datagram Protocol, Src Port: ntp (123), Dst Port: ntp (123)" size="8" pos="34">
    <field name="udp.srcport" showname="Source port: ntp (123)" size="2" pos="34" show="123" value="007b"/>
    <field name="udp.dstport" showname="Destination port: ntp (123)" size="2" pos="36" show="123" value="007b"/>
    <field name="udp.port" showname="Source or Destination Port: 123" hide="yes" size="2" pos="34" show="123" value="007b"/>
    <field name="udp.port" showname="Source or Destination Port: 123" hide="yes" size="2" pos="36" show="123" value="007b"/>
    <field name="udp.length" showname="Length: 56" size="2" pos="38" show="56" value="0038"/>
    <field name="udp.checksum_coverage" showname="Checksum coverage: 56" hide="yes" size="0" pos="38" show="56"/>
    <field name="udp.checksum" showname="Checksum: 0xe2a0 [validation disabled]" size="2" pos="40" show="0xe2a0" value="e2a0">
      <field name="udp.checksum_good" showname="Good Checksum: False" size="2" pos="40" show="0" value="e2a0"/>
      <field name="udp.checksum_bad" showname="Bad Checksum: False" size="2" pos="40" show="0" value="e2a0"/>
    </field>
  </proto>
  <proto name="ntp" showname="Network Time Protocol (NTP Version 4, client)" size="48" pos="42">
    <field name="ntp.flags" showname="Flags: 0xe3" size="1" pos="42" show="0xe3" value="e3">
      <field name="ntp.flags.li" showname="11.. .... = Leap Indicator: unknown (clock unsynchronized) (3)" size="1" pos="42" show="3" value="3" unmaskedvalue="e3"/>
      <field name="ntp.flags.vn" showname="..10 0... = Version number: NTP Version 4 (4)" size="1" pos="42" show="4" value="4" unmaskedvalue="e3"/>
      <field name="ntp.flags.mode" showname=".... .011 = Mode: client (3)" size="1" pos="42" show="3" value="3" unmaskedvalue="e3"/>
    </field>
    <field name="ntp.stratum" showname="Peer Clock Stratum: unspecified or invalid (0)" size="1" pos="43" show="0" value="00"/>
    <field name="ntp.ppoll" showname="Peer Polling Interval: invalid (3)" size="1" pos="44" show="3" value="03"/>
    <field name="ntp.precision" showname="Peer Clock Precision: 0.015625 sec" size="1" pos="45" show="-6" value="fa"/>
    <field name="ntp.rootdelay" showname="Root Delay:    1.0000 sec" size="4" pos="46" show="1" value="00010000"/>
    <field name="ntp.rootdispersion" showname="Root Dispersion:    1.0000 sec" size="4" pos="50" show="1" value="00010000"/>
    <field name="ntp.refid" showname="Reference ID: NULL" size="4" pos="54" show="00:00:00:00" value="00000000"/>
    <field name="ntp.reftime" showname="Reference Timestamp: Jan  1, 1970 00:00:00.000000000 UTC" size="8" pos="58" show="Dec 31, 1969 20:30:00.000000000" value="0000000000000000"/>
    <field name="ntp.org" showname="Origin Timestamp: Jan  1, 1970 00:00:00.000000000 UTC" size="8" pos="66" show="Dec 31, 1969 20:30:00.000000000" value="0000000000000000"/>
    <field name="ntp.rec" showname="Receive Timestamp: Jan  1, 1970 00:00:00.000000000 UTC" size="8" pos="74" show="Dec 31, 1969 20:30:00.000000000" value="0000000000000000"/>
    <field name="ntp.xmt" showname="Transmit Timestamp: Jan  4, 2014 00:31:56.446647000 UTC" size="8" pos="82" show="Jan  3, 2014 21:01:56.446647000" value="d671d4fc72577a58"/>
  </proto>
</packet>

<packet>
  <proto name="geninfo" pos="0" showname="General information" size="90">
    <field name="num" pos="0" show="1530" showname="Number" value="5fa" size="90"/>
    <field name="len" pos="0" show="90" showname="Frame Length" value="5a" size="90"/>
    <field name="caplen" pos="0" show="90" showname="Captured Length" value="5a" size="90"/>
    <field name="timestamp" pos="0" show="Jan  3, 2014 21:01:56.646708000 NST" showname="Captured Time" value="1388795516.646708000" size="90"/>
  </proto>
  <proto name="frame" showname="Frame 1530: 90 bytes on wire (720 bits), 90 bytes captured (720 bits) on interface 0" size="90" pos="0">
    <field name="frame.interface_id" showname="Interface id: 0" size="0" pos="0" show="0"/>
    <field name="frame.encap_type" showname="Encapsulation type: Ethernet (1)" size="0" pos="0" show="1"/>
    <field name="frame.time" showname="Arrival Time: Jan  3, 2014 21:01:56.646708000 NST" size="0" pos="0" show="Jan  3, 2014 21:01:56.646708000"/>
    <field name="frame.offset_shift" showname="Time shift for this packet: 0.000000000 seconds" size="0" pos="0" show="0.000000000"/>
    <field name="frame.time_epoch" showname="Epoch Time: 1388795516.646708000 seconds" size="0" pos="0" show="1388795516.646708000"/>
    <field name="frame.time_delta" showname="Time delta from previous captured frame: 0.199986000 seconds" size="0" pos="0" show="0.199986000"/>
    <field name="frame.time_delta_displayed" showname="Time delta from previous displayed frame: 0.199986000 seconds" size="0" pos="0" show="0.199986000"/>
    <field name="frame.time_relative" showname="Time since reference or first frame: 537.673768000 seconds" size="0" pos="0" show="537.673768000"/>
    <field name="frame.number" showname="Frame Number: 1530" size="0" pos="0" show="1530"/>
    <field name="frame.len" showname="Frame Length: 90 bytes (720 bits)" size="0" pos="0" show="90"/>
    <field name="frame.cap_len" showname="Capture Length: 90 bytes (720 bits)" size="0" pos="0" show="90"/>
    <field name="frame.marked" showname="Frame is marked: True" size="0" pos="0" show="1"/>
    <field name="frame.ignored" showname="Frame is ignored: False" size="0" pos="0" show="0"/>
    <field name="frame.protocols" showname="Protocols in frame: eth:ip:udp:ntp" size="0" pos="0" show="eth:ip:udp:ntp"/>
    <field name="frame.coloring_rule.name" showname="Coloring Rule Name: UDP" size="0" pos="0" show="UDP"/>
    <field name="frame.coloring_rule.string" showname="Coloring Rule String: udp" size="0" pos="0" show="udp"/>
  </proto>
  <proto name="eth" showname="Ethernet II, Src: Pegatron_2f:4d:48 (4c:72:b9:2f:4d:48), Dst: AsustekC_f6:97:3e (e0:cb:4e:f6:97:3e)" size="14" pos="0">
    <field name="eth.dst" showname="Destination: AsustekC_f6:97:3e (e0:cb:4e:f6:97:3e)" size="6" pos="0" show="e0:cb:4e:f6:97:3e" value="e0cb4ef6973e">
      <field name="eth.addr" showname="Address: AsustekC_f6:97:3e (e0:cb:4e:f6:97:3e)" size="6" pos="0" show="e0:cb:4e:f6:97:3e" value="e0cb4ef6973e"/>
      <field name="eth.lg" showname=".... ..0. .... .... .... .... = LG bit: Globally unique address (factory default)" size="3" pos="0" show="0" value="0" unmaskedvalue="e0cb4e"/>
      <field name="eth.ig" showname=".... ...0 .... .... .... .... = IG bit: Individual address (unicast)" size="3" pos="0" show="0" value="0" unmaskedvalue="e0cb4e"/>
    </field>
    <field name="eth.src" showname="Source: Pegatron_2f:4d:48 (4c:72:b9:2f:4d:48)" size="6" pos="6" show="4c:72:b9:2f:4d:48" value="4c72b92f4d48">
      <field name="eth.addr" showname="Address: Pegatron_2f:4d:48 (4c:72:b9:2f:4d:48)" size="6" pos="6" show="4c:72:b9:2f:4d:48" value="4c72b92f4d48"/>
      <field name="eth.lg" showname=".... ..0. .... .... .... .... = LG bit: Globally unique address (factory default)" size="3" pos="6" show="0" value="0" unmaskedvalue="4c72b9"/>
      <field name="eth.ig" showname=".... ...0 .... .... .... .... = IG bit: Individual address (unicast)" size="3" pos="6" show="0" value="0" unmaskedvalue="4c72b9"/>
    </field>
    <field name="eth.type" showname="Type: IP (0x0800)" size="2" pos="12" show="0x0800" value="0800"/>
  </proto>
  <proto name="ip" showname="Internet Protocol Version 4, Src: 10.48.1.195 (10.48.1.195), Dst: 132.246.11.229 (132.246.11.229)" size="20" pos="14">
    <field name="ip.version" showname="Version: 4" size="1" pos="14" show="4" value="45"/>
    <field name="ip.hdr_len" showname="Header length: 20 bytes" size="1" pos="14" show="20" value="45"/>
    <field name="ip.dsfield" showname="Differentiated Services Field: 0x00 (DSCP 0x00: Default; ECN: 0x00: Not-ECT (Not ECN-Capable Transport))" size="1" pos="15" show="0" value="00">
      <field name="ip.dsfield.dscp" showname="0000 00.. = Differentiated Services Codepoint: Default (0x00)" size="1" pos="15" show="0x00" value="0" unmaskedvalue="00"/>
      <field name="ip.dsfield.ecn" showname=".... ..00 = Explicit Congestion Notification: Not-ECT (Not ECN-Capable Transport) (0x00)" size="1" pos="15" show="0x00" value="0" unmaskedvalue="00"/>
    </field>
    <field name="ip.len" showname="Total Length: 76" size="2" pos="16" show="76" value="004c"/>
    <field name="ip.id" showname="Identification: 0x524d (21069)" size="2" pos="18" show="0x524d" value="524d"/>
    <field name="ip.flags" showname="Flags: 0x02 (Don&apos;t Fragment)" size="1" pos="20" show="0x02" value="40">
      <field name="ip.flags.rb" showname="0... .... = Reserved bit: Not set" size="1" pos="20" show="0" value="40"/>
      <field name="ip.flags.df" showname=".1.. .... = Don&apos;t fragment: Set" size="1" pos="20" show="1" value="40"/>
      <field name="ip.flags.mf" showname="..0. .... = More fragments: Not set" size="1" pos="20" show="0" value="40"/>
    </field>
    <field name="ip.frag_offset" showname="Fragment offset: 0" size="2" pos="20" show="0" value="4000"/>
    <field name="ip.ttl" showname="Time to live: 64" size="1" pos="22" show="64" value="40"/>
    <field name="ip.proto" showname="Protocol: UDP (17)" size="1" pos="23" show="17" value="11"/>
    <field name="ip.checksum" showname="Header checksum: 0x4b86 [correct]" size="2" pos="24" show="0x4b86" value="4b86">
      <field name="ip.checksum_good" showname="Good: True" size="2" pos="24" show="1" value="4b86"/>
      <field name="ip.checksum_bad" showname="Bad: False" size="2" pos="24" show="0" value="4b86"/>
    </field>
    <field name="ip.src" showname="Source: 10.48.1.195 (10.48.1.195)" size="4" pos="26" show="10.48.1.195" value="0a3001c3"/>
    <field name="ip.addr" showname="Source or Destination Address: 10.48.1.195 (10.48.1.195)" hide="yes" size="4" pos="26" show="10.48.1.195" value="0a3001c3"/>
    <field name="ip.src_host" showname="Source Host: 10.48.1.195" hide="yes" size="4" pos="26" show="10.48.1.195" value="0a3001c3"/>
    <field name="ip.host" showname="Source or Destination Host: 10.48.1.195" hide="yes" size="4" pos="26" show="10.48.1.195" value="0a3001c3"/>
    <field name="ip.dst" showname="Destination: 132.246.11.229 (132.246.11.229)" size="4" pos="30" show="132.246.11.229" value="84f60be5"/>
    <field name="ip.addr" showname="Source or Destination Address: 132.246.11.229 (132.246.11.229)" hide="yes" size="4" pos="30" show="132.246.11.229" value="84f60be5"/>
    <field name="ip.dst_host" showname="Destination Host: 132.246.11.229" hide="yes" size="4" pos="30" show="132.246.11.229" value="84f60be5"/>
    <field name="ip.host" showname="Source or Destination Host: 132.246.11.229" hide="yes" size="4" pos="30" show="132.246.11.229" value="84f60be5"/>
    <field name="" show="Source GeoIP: Unknown" size="4" pos="26" value="0a3001c3"/>
    <field name="" show="Destination GeoIP: Unknown" size="4" pos="30" value="84f60be5"/>
  </proto>
  <proto name="udp" showname="User Datagram Protocol, Src Port: ntp (123), Dst Port: ntp (123)" size="8" pos="34">
    <field name="udp.srcport" showname="Source port: ntp (123)" size="2" pos="34" show="123" value="007b"/>
    <field name="udp.dstport" showname="Destination port: ntp (123)" size="2" pos="36" show="123" value="007b"/>
    <field name="udp.port" showname="Source or Destination Port: 123" hide="yes" size="2" pos="34" show="123" value="007b"/>
    <field name="udp.port" showname="Source or Destination Port: 123" hide="yes" size="2" pos="36" show="123" value="007b"/>
    <field name="udp.length" showname="Length: 56" size="2" pos="38" show="56" value="0038"/>
    <field name="udp.checksum_coverage" showname="Checksum coverage: 56" hide="yes" size="0" pos="38" show="56"/>
    <field name="udp.checksum" showname="Checksum: 0x473a [validation disabled]" size="2" pos="40" show="0x473a" value="473a">
      <field name="udp.checksum_good" showname="Good Checksum: False" size="2" pos="40" show="0" value="473a"/>
      <field name="udp.checksum_bad" showname="Bad Checksum: False" size="2" pos="40" show="0" value="473a"/>
    </field>
  </proto>
  <proto name="ntp" showname="Network Time Protocol (NTP Version 4, client)" size="48" pos="42">
    <field name="ntp.flags" showname="Flags: 0xe3" size="1" pos="42" show="0xe3" value="e3">
      <field name="ntp.flags.li" showname="11.. .... = Leap Indicator: unknown (clock unsynchronized) (3)" size="1" pos="42" show="3" value="3" unmaskedvalue="e3"/>
      <field name="ntp.flags.vn" showname="..10 0... = Version number: NTP Version 4 (4)" size="1" pos="42" show="4" value="4" unmaskedvalue="e3"/>
      <field name="ntp.flags.mode" showname=".... .011 = Mode: client (3)" size="1" pos="42" show="3" value="3" unmaskedvalue="e3"/>
    </field>
    <field name="ntp.stratum" showname="Peer Clock Stratum: unspecified or invalid (0)" size="1" pos="43" show="0" value="00"/>
    <field name="ntp.ppoll" showname="Peer Polling Interval: invalid (3)" size="1" pos="44" show="3" value="03"/>
    <field name="ntp.precision" showname="Peer Clock Precision: 0.015625 sec" size="1" pos="45" show="-6" value="fa"/>
    <field name="ntp.rootdelay" showname="Root Delay:    1.0000 sec" size="4" pos="46" show="1" value="00010000"/>
    <field name="ntp.rootdispersion" showname="Root Dispersion:    1.0000 sec" size="4" pos="50" show="1" value="00010000"/>
    <field name="ntp.refid" showname="Reference ID: NULL" size="4" pos="54" show="00:00:00:00" value="00000000"/>
    <field name="ntp.reftime" showname="Reference Timestamp: Jan  1, 1970 00:00:00.000000000 UTC" size="8" pos="58" show="Dec 31, 1969 20:30:00.000000000" value="0000000000000000"/>
    <field name="ntp.org" showname="Origin Timestamp: Jan  1, 1970 00:00:00.000000000 UTC" size="8" pos="66" show="Dec 31, 1969 20:30:00.000000000" value="0000000000000000"/>
    <field name="ntp.rec" showname="Receive Timestamp: Jan  1, 1970 00:00:00.000000000 UTC" size="8" pos="74" show="Dec 31, 1969 20:30:00.000000000" value="0000000000000000"/>
    <field name="ntp.xmt" showname="Transmit Timestamp: Jan  4, 2014 00:31:56.646635000 UTC" size="8" pos="82" show="Jan  3, 2014 21:01:56.646635000" value="d671d4fca589e28a"/>
  </proto>
</packet>

<packet>
  <proto name="geninfo" pos="0" showname="General information" size="90">
    <field name="num" pos="0" show="1531" showname="Number" value="5fb" size="90"/>
    <field name="len" pos="0" show="90" showname="Frame Length" value="5a" size="90"/>
    <field name="caplen" pos="0" show="90" showname="Captured Length" value="5a" size="90"/>
    <field name="timestamp" pos="0" show="Jan  3, 2014 21:01:56.703789000 NST" showname="Captured Time" value="1388795516.703789000" size="90"/>
  </proto>
  <proto name="frame" showname="Frame 1531: 90 bytes on wire (720 bits), 90 bytes captured (720 bits) on interface 0" size="90" pos="0">
    <field name="frame.interface_id" showname="Interface id: 0" size="0" pos="0" show="0"/>
    <field name="frame.encap_type" showname="Encapsulation type: Ethernet (1)" size="0" pos="0" show="1"/>
    <field name="frame.time" showname="Arrival Time: Jan  3, 2014 21:01:56.703789000 NST" size="0" pos="0" show="Jan  3, 2014 21:01:56.703789000"/>
    <field name="frame.offset_shift" showname="Time shift for this packet: 0.000000000 seconds" size="0" pos="0" show="0.000000000"/>
    <field name="frame.time_epoch" showname="Epoch Time: 1388795516.703789000 seconds" size="0" pos="0" show="1388795516.703789000"/>
    <field name="frame.time_delta" showname="Time delta from previous captured frame: 0.057081000 seconds" size="0" pos="0" show="0.057081000"/>
    <field name="frame.time_delta_displayed" showname="Time delta from previous displayed frame: 0.057081000 seconds" size="0" pos="0" show="0.057081000"/>
    <field name="frame.time_relative" showname="Time since reference or first frame: 537.730849000 seconds" size="0" pos="0" show="537.730849000"/>
    <field name="frame.number" showname="Frame Number: 1531" size="0" pos="0" show="1531"/>
    <field name="frame.len" showname="Frame Length: 90 bytes (720 bits)" size="0" pos="0" show="90"/>
    <field name="frame.cap_len" showname="Capture Length: 90 bytes (720 bits)" size="0" pos="0" show="90"/>
    <field name="frame.marked" showname="Frame is marked: True" size="0" pos="0" show="1"/>
    <field name="frame.ignored" showname="Frame is ignored: False" size="0" pos="0" show="0"/>
    <field name="frame.protocols" showname="Protocols in frame: eth:ip:udp:ntp" size="0" pos="0" show="eth:ip:udp:ntp"/>
    <field name="frame.coloring_rule.name" showname="Coloring Rule Name: UDP" size="0" pos="0" show="UDP"/>
    <field name="frame.coloring_rule.string" showname="Coloring Rule String: udp" size="0" pos="0" show="udp"/>
  </proto>
  <proto name="eth" showname="Ethernet II, Src: AsustekC_f6:97:3e (e0:cb:4e:f6:97:3e), Dst: Pegatron_2f:4d:48 (4c:72:b9:2f:4d:48)" size="14" pos="0">
    <field name="eth.dst" showname="Destination: Pegatron_2f:4d:48 (4c:72:b9:2f:4d:48)" size="6" pos="0" show="4c:72:b9:2f:4d:48" value="4c72b92f4d48">
      <field name="eth.addr" showname="Address: Pegatron_2f:4d:48 (4c:72:b9:2f:4d:48)" size="6" pos="0" show="4c:72:b9:2f:4d:48" value="4c72b92f4d48"/>
      <field name="eth.lg" showname=".... ..0. .... .... .... .... = LG bit: Globally unique address (factory default)" size="3" pos="0" show="0" value="0" unmaskedvalue="4c72b9"/>
      <field name="eth.ig" showname=".... ...0 .... .... .... .... = IG bit: Individual address (unicast)" size="3" pos="0" show="0" value="0" unmaskedvalue="4c72b9"/>
    </field>
    <field name="eth.src" showname="Source: AsustekC_f6:97:3e (e0:cb:4e:f6:97:3e)" size="6" pos="6" show="e0:cb:4e:f6:97:3e" value="e0cb4ef6973e">
      <field name="eth.addr" showname="Address: AsustekC_f6:97:3e (e0:cb:4e:f6:97:3e)" size="6" pos="6" show="e0:cb:4e:f6:97:3e" value="e0cb4ef6973e"/>
      <field name="eth.lg" showname=".... ..0. .... .... .... .... = LG bit: Globally unique address (factory default)" size="3" pos="6" show="0" value="0" unmaskedvalue="e0cb4e"/>
      <field name="eth.ig" showname=".... ...0 .... .... .... .... = IG bit: Individual address (unicast)" size="3" pos="6" show="0" value="0" unmaskedvalue="e0cb4e"/>
    </field>
    <field name="eth.type" showname="Type: IP (0x0800)" size="2" pos="12" show="0x0800" value="0800"/>
  </proto>
  <proto name="ip" showname="Internet Protocol Version 4, Src: 132.246.11.229 (132.246.11.229), Dst: 10.48.1.195 (10.48.1.195)" size="20" pos="14">
    <field name="ip.version" showname="Version: 4" size="1" pos="14" show="4" value="45"/>
    <field name="ip.hdr_len" showname="Header length: 20 bytes" size="1" pos="14" show="20" value="45"/>
    <field name="ip.dsfield" showname="Differentiated Services Field: 0x00 (DSCP 0x00: Default; ECN: 0x00: Not-ECT (Not ECN-Capable Transport))" size="1" pos="15" show="0" value="00">
      <field name="ip.dsfield.dscp" showname="0000 00.. = Differentiated Services Codepoint: Default (0x00)" size="1" pos="15" show="0x00" value="0" unmaskedvalue="00"/>
      <field name="ip.dsfield.ecn" showname=".... ..00 = Explicit Congestion Notification: Not-ECT (Not ECN-Capable Transport) (0x00)" size="1" pos="15" show="0x00" value="0" unmaskedvalue="00"/>
    </field>
    <field name="ip.len" showname="Total Length: 76" size="2" pos="16" show="76" value="004c"/>
    <field name="ip.id" showname="Identification: 0x0000 (0)" size="2" pos="18" show="0x0000" value="0000"/>
    <field name="ip.flags" showname="Flags: 0x02 (Don&apos;t Fragment)" size="1" pos="20" show="0x02" value="40">
      <field name="ip.flags.rb" showname="0... .... = Reserved bit: Not set" size="1" pos="20" show="0" value="40"/>
      <field name="ip.flags.df" showname=".1.. .... = Don&apos;t fragment: Set" size="1" pos="20" show="1" value="40"/>
      <field name="ip.flags.mf" showname="..0. .... = More fragments: Not set" size="1" pos="20" show="0" value="40"/>
    </field>
    <field name="ip.frag_offset" showname="Fragment offset: 0" size="2" pos="20" show="0" value="4000"/>
    <field name="ip.ttl" showname="Time to live: 53" size="1" pos="22" show="53" value="35"/>
    <field name="ip.proto" showname="Protocol: UDP (17)" size="1" pos="23" show="17" value="11"/>
    <field name="ip.checksum" showname="Header checksum: 0xa8d3 [correct]" size="2" pos="24" show="0xa8d3" value="a8d3">
      <field name="ip.checksum_good" showname="Good: True" size="2" pos="24" show="1" value="a8d3"/>
      <field name="ip.checksum_bad" showname="Bad: False" size="2" pos="24" show="0" value="a8d3"/>
    </field>
    <field name="ip.src" showname="Source: 132.246.11.229 (132.246.11.229)" size="4" pos="26" show="132.246.11.229" value="84f60be5"/>
    <field name="ip.addr" showname="Source or Destination Address: 132.246.11.229 (132.246.11.229)" hide="yes" size="4" pos="26" show="132.246.11.229" value="84f60be5"/>
    <field name="ip.src_host" showname="Source Host: 132.246.11.229" hide="yes" size="4" pos="26" show="132.246.11.229" value="84f60be5"/>
    <field name="ip.host" showname="Source or Destination Host: 132.246.11.229" hide="yes" size="4" pos="26" show="132.246.11.229" value="84f60be5"/>
    <field name="ip.dst" showname="Destination: 10.48.1.195 (10.48.1.195)" size="4" pos="30" show="10.48.1.195" value="0a3001c3"/>
    <field name="ip.addr" showname="Source or Destination Address: 10.48.1.195 (10.48.1.195)" hide="yes" size="4" pos="30" show="10.48.1.195" value="0a3001c3"/>
    <field name="ip.dst_host" showname="Destination Host: 10.48.1.195" hide="yes" size="4" pos="30" show="10.48.1.195" value="0a3001c3"/>
    <field name="ip.host" showname="Source or Destination Host: 10.48.1.195" hide="yes" size="4" pos="30" show="10.48.1.195" value="0a3001c3"/>
    <field name="" show="Source GeoIP: Unknown" size="4" pos="26" value="84f60be5"/>
    <field name="" show="Destination GeoIP: Unknown" size="4" pos="30" value="0a3001c3"/>
  </proto>
  <proto name="udp" showname="User Datagram Protocol, Src Port: ntp (123), Dst Port: ntp (123)" size="8" pos="34">
    <field name="udp.srcport" showname="Source port: ntp (123)" size="2" pos="34" show="123" value="007b"/>
    <field name="udp.dstport" showname="Destination port: ntp (123)" size="2" pos="36" show="123" value="007b"/>
    <field name="udp.port" showname="Source or Destination Port: 123" hide="yes" size="2" pos="34" show="123" value="007b"/>
    <field name="udp.port" showname="Source or Destination Port: 123" hide="yes" size="2" pos="36" show="123" value="007b"/>
    <field name="udp.length" showname="Length: 56" size="2" pos="38" show="56" value="0038"/>
    <field name="udp.checksum_coverage" showname="Checksum coverage: 56" hide="yes" size="0" pos="38" show="56"/>
    <field name="udp.checksum" showname="Checksum: 0x179e [validation disabled]" size="2" pos="40" show="0x179e" value="179e">
      <field name="udp.checksum_good" showname="Good Checksum: False" size="2" pos="40" show="0" value="179e"/>
      <field name="udp.checksum_bad" showname="Bad Checksum: False" size="2" pos="40" show="0" value="179e"/>
    </field>
  </proto>
  <proto name="ntp" showname="Network Time Protocol (NTP Version 4, server)" size="48" pos="42">
    <field name="ntp.flags" showname="Flags: 0x24" size="1" pos="42" show="0x24" value="24">
      <field name="ntp.flags.li" showname="00.. .... = Leap Indicator: no warning (0)" size="1" pos="42" show="0" value="0" unmaskedvalue="24"/>
      <field name="ntp.flags.vn" showname="..10 0... = Version number: NTP Version 4 (4)" size="1" pos="42" show="4" value="4" unmaskedvalue="24"/>
      <field name="ntp.flags.mode" showname=".... .100 = Mode: server (4)" size="1" pos="42" show="4" value="4" unmaskedvalue="24"/>
    </field>
    <field name="ntp.stratum" showname="Peer Clock Stratum: secondary reference (2)" size="1" pos="43" show="2" value="02"/>
    <field name="ntp.ppoll" showname="Peer Polling Interval: invalid (3)" size="1" pos="44" show="3" value="03"/>
    <field name="ntp.precision" showname="Peer Clock Precision: 0.000001 sec" size="1" pos="45" show="-20" value="ec"/>
    <field name="ntp.rootdelay" showname="Root Delay:    0.0001 sec" size="4" pos="46" show="0.0001373291015625" value="00000009"/>
    <field name="ntp.rootdispersion" showname="Root Dispersion:    0.0065 sec" size="4" pos="50" show="0.0065155029296875" value="000001ab"/>
    <field name="ntp.refid" showname="Reference ID: 132.246.11.233" size="4" pos="54" show="84:f6:0b:e9" value="84f60be9"/>
    <field name="ntp.reftime" showname="Reference Timestamp: Jan  4, 2014 00:29:38.525288000 UTC" size="8" pos="58" show="Jan  3, 2014 20:59:38.525288000" value="d671d47286795043"/>
    <field name="ntp.org" showname="Origin Timestamp: Jan  4, 2014 00:31:56.646635000 UTC" size="8" pos="66" show="Jan  3, 2014 21:01:56.646635000" value="d671d4fca589e28a"/>
    <field name="ntp.rec" showname="Receive Timestamp: Jan  4, 2014 00:31:55.782483000 UTC" size="8" pos="74" show="Jan  3, 2014 21:01:55.782483000" value="d671d4fbc850d9cb"/>
    <field name="ntp.xmt" showname="Transmit Timestamp: Jan  4, 2014 00:31:55.782517000 UTC" size="8" pos="82" show="Jan  3, 2014 21:01:55.782517000" value="d671d4fbc853192a"/>
  </proto>
</packet>

<packet>
  <proto name="geninfo" pos="0" showname="General information" size="90">
    <field name="num" pos="0" show="1532" showname="Number" value="5fc" size="90"/>
    <field name="len" pos="0" show="90" showname="Frame Length" value="5a" size="90"/>
    <field name="caplen" pos="0" show="90" showname="Captured Length" value="5a" size="90"/>
    <field name="timestamp" pos="0" show="Jan  3, 2014 21:01:56.846708000 NST" showname="Captured Time" value="1388795516.846708000" size="90"/>
  </proto>
  <proto name="frame" showname="Frame 1532: 90 bytes on wire (720 bits), 90 bytes captured (720 bits) on interface 0" size="90" pos="0">
    <field name="frame.interface_id" showname="Interface id: 0" size="0" pos="0" show="0"/>
    <field name="frame.encap_type" showname="Encapsulation type: Ethernet (1)" size="0" pos="0" show="1"/>
    <field name="frame.time" showname="Arrival Time: Jan  3, 2014 21:01:56.846708000 NST" size="0" pos="0" show="Jan  3, 2014 21:01:56.846708000"/>
    <field name="frame.offset_shift" showname="Time shift for this packet: 0.000000000 seconds" size="0" pos="0" show="0.000000000"/>
    <field name="frame.time_epoch" showname="Epoch Time: 1388795516.846708000 seconds" size="0" pos="0" show="1388795516.846708000"/>
    <field name="frame.time_delta" showname="Time delta from previous captured frame: 0.142919000 seconds" size="0" pos="0" show="0.142919000"/>
    <field name="frame.time_delta_displayed" showname="Time delta from previous displayed frame: 0.142919000 seconds" size="0" pos="0" show="0.142919000"/>
    <field name="frame.time_relative" showname="Time since reference or first frame: 537.873768000 seconds" size="0" pos="0" show="537.873768000"/>
    <field name="frame.number" showname="Frame Number: 1532" size="0" pos="0" show="1532"/>
    <field name="frame.len" showname="Frame Length: 90 bytes (720 bits)" size="0" pos="0" show="90"/>
    <field name="frame.cap_len" showname="Capture Length: 90 bytes (720 bits)" size="0" pos="0" show="90"/>
    <field name="frame.marked" showname="Frame is marked: True" size="0" pos="0" show="1"/>
    <field name="frame.ignored" showname="Frame is ignored: False" size="0" pos="0" show="0"/>
    <field name="frame.protocols" showname="Protocols in frame: eth:ip:udp:ntp" size="0" pos="0" show="eth:ip:udp:ntp"/>
    <field name="frame.coloring_rule.name" showname="Coloring Rule Name: UDP" size="0" pos="0" show="UDP"/>
    <field name="frame.coloring_rule.string" showname="Coloring Rule String: udp" size="0" pos="0" show="udp"/>
  </proto>
  <proto name="eth" showname="Ethernet II, Src: Pegatron_2f:4d:48 (4c:72:b9:2f:4d:48), Dst: AsustekC_f6:97:3e (e0:cb:4e:f6:97:3e)" size="14" pos="0">
    <field name="eth.dst" showname="Destination: AsustekC_f6:97:3e (e0:cb:4e:f6:97:3e)" size="6" pos="0" show="e0:cb:4e:f6:97:3e" value="e0cb4ef6973e">
      <field name="eth.addr" showname="Address: AsustekC_f6:97:3e (e0:cb:4e:f6:97:3e)" size="6" pos="0" show="e0:cb:4e:f6:97:3e" value="e0cb4ef6973e"/>
      <field name="eth.lg" showname=".... ..0. .... .... .... .... = LG bit: Globally unique address (factory default)" size="3" pos="0" show="0" value="0" unmaskedvalue="e0cb4e"/>
      <field name="eth.ig" showname=".... ...0 .... .... .... .... = IG bit: Individual address (unicast)" size="3" pos="0" show="0" value="0" unmaskedvalue="e0cb4e"/>
    </field>
    <field name="eth.src" showname="Source: Pegatron_2f:4d:48 (4c:72:b9:2f:4d:48)" size="6" pos="6" show="4c:72:b9:2f:4d:48" value="4c72b92f4d48">
      <field name="eth.addr" showname="Address: Pegatron_2f:4d:48 (4c:72:b9:2f:4d:48)" size="6" pos="6" show="4c:72:b9:2f:4d:48" value="4c72b92f4d48"/>
      <field name="eth.lg" showname=".... ..0. .... .... .... .... = LG bit: Globally unique address (factory default)" size="3" pos="6" show="0" value="0" unmaskedvalue="4c72b9"/>
      <field name="eth.ig" showname=".... ...0 .... .... .... .... = IG bit: Individual address (unicast)" size="3" pos="6" show="0" value="0" unmaskedvalue="4c72b9"/>
    </field>
    <field name="eth.type" showname="Type: IP (0x0800)" size="2" pos="12" show="0x0800" value="0800"/>
  </proto>
  <proto name="ip" showname="Internet Protocol Version 4, Src: 10.48.1.195 (10.48.1.195), Dst: 132.246.11.228 (132.246.11.228)" size="20" pos="14">
    <field name="ip.version" showname="Version: 4" size="1" pos="14" show="4" value="45"/>
    <field name="ip.hdr_len" showname="Header length: 20 bytes" size="1" pos="14" show="20" value="45"/>
    <field name="ip.dsfield" showname="Differentiated Services Field: 0x00 (DSCP 0x00: Default; ECN: 0x00: Not-ECT (Not ECN-Capable Transport))" size="1" pos="15" show="0" value="00">
      <field name="ip.dsfield.dscp" showname="0000 00.. = Differentiated Services Codepoint: Default (0x00)" size="1" pos="15" show="0x00" value="0" unmaskedvalue="00"/>
      <field name="ip.dsfield.ecn" showname=".... ..00 = Explicit Congestion Notification: Not-ECT (Not ECN-Capable Transport) (0x00)" size="1" pos="15" show="0x00" value="0" unmaskedvalue="00"/>
    </field>
    <field name="ip.len" showname="Total Length: 76" size="2" pos="16" show="76" value="004c"/>
    <field name="ip.id" showname="Identification: 0x91d4 (37332)" size="2" pos="18" show="0x91d4" value="91d4"/>
    <field name="ip.flags" showname="Flags: 0x02 (Don&apos;t Fragment)" size="1" pos="20" show="0x02" value="40">
      <field name="ip.flags.rb" showname="0... .... = Reserved bit: Not set" size="1" pos="20" show="0" value="40"/>
      <field name="ip.flags.df" showname=".1.. .... = Don&apos;t fragment: Set" size="1" pos="20" show="1" value="40"/>
      <field name="ip.flags.mf" showname="..0. .... = More fragments: Not set" size="1" pos="20" show="0" value="40"/>
    </field>
    <field name="ip.frag_offset" showname="Fragment offset: 0" size="2" pos="20" show="0" value="4000"/>
    <field name="ip.ttl" showname="Time to live: 64" size="1" pos="22" show="64" value="40"/>
    <field name="ip.proto" showname="Protocol: UDP (17)" size="1" pos="23" show="17" value="11"/>
    <field name="ip.checksum" showname="Header checksum: 0x0c00 [correct]" size="2" pos="24" show="0x0c00" value="0c00">
      <field name="ip.checksum_good" showname="Good: True" size="2" pos="24" show="1" value="0c00"/>
      <field name="ip.checksum_bad" showname="Bad: False" size="2" pos="24" show="0" value="0c00"/>
    </field>
    <field name="ip.src" showname="Source: 10.48.1.195 (10.48.1.195)" size="4" pos="26" show="10.48.1.195" value="0a3001c3"/>
    <field name="ip.addr" showname="Source or Destination Address: 10.48.1.195 (10.48.1.195)" hide="yes" size="4" pos="26" show="10.48.1.195" value="0a3001c3"/>
    <field name="ip.src_host" showname="Source Host: 10.48.1.195" hide="yes" size="4" pos="26" show="10.48.1.195" value="0a3001c3"/>
    <field name="ip.host" showname="Source or Destination Host: 10.48.1.195" hide="yes" size="4" pos="26" show="10.48.1.195" value="0a3001c3"/>
    <field name="ip.dst" showname="Destination: 132.246.11.228 (132.246.11.228)" size="4" pos="30" show="132.246.11.228" value="84f60be4"/>
    <field name="ip.addr" showname="Source or Destination Address: 132.246.11.228 (132.246.11.228)" hide="yes" size="4" pos="30" show="132.246.11.228" value="84f60be4"/>
    <field name="ip.dst_host" showname="Destination Host: 132.246.11.228" hide="yes" size="4" pos="30" show="132.246.11.228" value="84f60be4"/>
    <field name="ip.host" showname="Source or Destination Host: 132.246.11.228" hide="yes" size="4" pos="30" show="132.246.11.228" value="84f60be4"/>
    <field name="" show="Source GeoIP: Unknown" size="4" pos="26" value="0a3001c3"/>
    <field name="" show="Destination GeoIP: Unknown" size="4" pos="30" value="84f60be4"/>
  </proto>
  <proto name="udp" showname="User Datagram Protocol, Src Port: ntp (123), Dst Port: ntp (123)" size="8" pos="34">
    <field name="udp.srcport" showname="Source port: ntp (123)" size="2" pos="34" show="123" value="007b"/>
    <field name="udp.dstport" showname="Destination port: ntp (123)" size="2" pos="36" show="123" value="007b"/>
    <field name="udp.port" showname="Source or Destination Port: 123" hide="yes" size="2" pos="34" show="123" value="007b"/>
    <field name="udp.port" showname="Source or Destination Port: 123" hide="yes" size="2" pos="36" show="123" value="007b"/>
    <field name="udp.length" showname="Length: 56" size="2" pos="38" show="56" value="0038"/>
    <field name="udp.checksum_coverage" showname="Checksum coverage: 56" hide="yes" size="0" pos="38" show="56"/>
    <field name="udp.checksum" showname="Checksum: 0xc3e7 [validation disabled]" size="2" pos="40" show="0xc3e7" value="c3e7">
      <field name="udp.checksum_good" showname="Good Checksum: False" size="2" pos="40" show="0" value="c3e7"/>
      <field name="udp.checksum_bad" showname="Bad Checksum: False" size="2" pos="40" show="0" value="c3e7"/>
    </field>
  </proto>
  <proto name="ntp" showname="Network Time Protocol (NTP Version 4, client)" size="48" pos="42">
    <field name="ntp.flags" showname="Flags: 0xe3" size="1" pos="42" show="0xe3" value="e3">
      <field name="ntp.flags.li" showname="11.. .... = Leap Indicator: unknown (clock unsynchronized) (3)" size="1" pos="42" show="3" value="3" unmaskedvalue="e3"/>
      <field name="ntp.flags.vn" showname="..10 0... = Version number: NTP Version 4 (4)" size="1" pos="42" show="4" value="4" unmaskedvalue="e3"/>
      <field name="ntp.flags.mode" showname=".... .011 = Mode: client (3)" size="1" pos="42" show="3" value="3" unmaskedvalue="e3"/>
    </field>
    <field name="ntp.stratum" showname="Peer Clock Stratum: unspecified or invalid (0)" size="1" pos="43" show="0" value="00"/>
    <field name="ntp.ppoll" showname="Peer Polling Interval: invalid (3)" size="1" pos="44" show="3" value="03"/>
    <field name="ntp.precision" showname="Peer Clock Precision: 0.015625 sec" size="1" pos="45" show="-6" value="fa"/>
    <field name="ntp.rootdelay" showname="Root Delay:    1.0000 sec" size="4" pos="46" show="1" value="00010000"/>
    <field name="ntp.rootdispersion" showname="Root Dispersion:    1.0000 sec" size="4" pos="50" show="1" value="00010000"/>
    <field name="ntp.refid" showname="Reference ID: NULL" size="4" pos="54" show="00:00:00:00" value="00000000"/>
    <field name="ntp.reftime" showname="Reference Timestamp: Jan  1, 1970 00:00:00.000000000 UTC" size="8" pos="58" show="Dec 31, 1969 20:30:00.000000000" value="0000000000000000"/>
    <field name="ntp.org" showname="Origin Timestamp: Jan  1, 1970 00:00:00.000000000 UTC" size="8" pos="66" show="Dec 31, 1969 20:30:00.000000000" value="0000000000000000"/>
    <field name="ntp.rec" showname="Receive Timestamp: Jan  1, 1970 00:00:00.000000000 UTC" size="8" pos="74" show="Dec 31, 1969 20:30:00.000000000" value="0000000000000000"/>
    <field name="ntp.xmt" showname="Transmit Timestamp: Jan  4, 2014 00:31:56.846636000 UTC" size="8" pos="82" show="Jan  3, 2014 21:01:56.846636000" value="d671d4fcd8bd32aa"/>
  </proto>
</packet>

<packet>
  <proto name="geninfo" pos="0" showname="General information" size="90">
    <field name="num" pos="0" show="1533" showname="Number" value="5fd" size="90"/>
    <field name="len" pos="0" show="90" showname="Frame Length" value="5a" size="90"/>
    <field name="caplen" pos="0" show="90" showname="Captured Length" value="5a" size="90"/>
    <field name="timestamp" pos="0" show="Jan  3, 2014 21:01:56.902582000 NST" showname="Captured Time" value="1388795516.902582000" size="90"/>
  </proto>
  <proto name="frame" showname="Frame 1533: 90 bytes on wire (720 bits), 90 bytes captured (720 bits) on interface 0" size="90" pos="0">
    <field name="frame.interface_id" showname="Interface id: 0" size="0" pos="0" show="0"/>
    <field name="frame.encap_type" showname="Encapsulation type: Ethernet (1)" size="0" pos="0" show="1"/>
    <field name="frame.time" showname="Arrival Time: Jan  3, 2014 21:01:56.902582000 NST" size="0" pos="0" show="Jan  3, 2014 21:01:56.902582000"/>
    <field name="frame.offset_shift" showname="Time shift for this packet: 0.000000000 seconds" size="0" pos="0" show="0.000000000"/>
    <field name="frame.time_epoch" showname="Epoch Time: 1388795516.902582000 seconds" size="0" pos="0" show="1388795516.902582000"/>
    <field name="frame.time_delta" showname="Time delta from previous captured frame: 0.055874000 seconds" size="0" pos="0" show="0.055874000"/>
    <field name="frame.time_delta_displayed" showname="Time delta from previous displayed frame: 0.055874000 seconds" size="0" pos="0" show="0.055874000"/>
    <field name="frame.time_relative" showname="Time since reference or first frame: 537.929642000 seconds" size="0" pos="0" show="537.929642000"/>
    <field name="frame.number" showname="Frame Number: 1533" size="0" pos="0" show="1533"/>
    <field name="frame.len" showname="Frame Length: 90 bytes (720 bits)" size="0" pos="0" show="90"/>
    <field name="frame.cap_len" showname="Capture Length: 90 bytes (720 bits)" size="0" pos="0" show="90"/>
    <field name="frame.marked" showname="Frame is marked: True" size="0" pos="0" show="1"/>
    <field name="frame.ignored" showname="Frame is ignored: False" size="0" pos="0" show="0"/>
    <field name="frame.protocols" showname="Protocols in frame: eth:ip:udp:ntp" size="0" pos="0" show="eth:ip:udp:ntp"/>
    <field name="frame.coloring_rule.name" showname="Coloring Rule Name: UDP" size="0" pos="0" show="UDP"/>
    <field name="frame.coloring_rule.string" showname="Coloring Rule String: udp" size="0" pos="0" show="udp"/>
  </proto>
  <proto name="eth" showname="Ethernet II, Src: AsustekC_f6:97:3e (e0:cb:4e:f6:97:3e), Dst: Pegatron_2f:4d:48 (4c:72:b9:2f:4d:48)" size="14" pos="0">
    <field name="eth.dst" showname="Destination: Pegatron_2f:4d:48 (4c:72:b9:2f:4d:48)" size="6" pos="0" show="4c:72:b9:2f:4d:48" value="4c72b92f4d48">
      <field name="eth.addr" showname="Address: Pegatron_2f:4d:48 (4c:72:b9:2f:4d:48)" size="6" pos="0" show="4c:72:b9:2f:4d:48" value="4c72b92f4d48"/>
      <field name="eth.lg" showname=".... ..0. .... .... .... .... = LG bit: Globally unique address (factory default)" size="3" pos="0" show="0" value="0" unmaskedvalue="4c72b9"/>
      <field name="eth.ig" showname=".... ...0 .... .... .... .... = IG bit: Individual address (unicast)" size="3" pos="0" show="0" value="0" unmaskedvalue="4c72b9"/>
    </field>
    <field name="eth.src" showname="Source: AsustekC_f6:97:3e (e0:cb:4e:f6:97:3e)" size="6" pos="6" show="e0:cb:4e:f6:97:3e" value="e0cb4ef6973e">
      <field name="eth.addr" showname="Address: AsustekC_f6:97:3e (e0:cb:4e:f6:97:3e)" size="6" pos="6" show="e0:cb:4e:f6:97:3e" value="e0cb4ef6973e"/>
      <field name="eth.lg" showname=".... ..0. .... .... .... .... = LG bit: Globally unique address (factory default)" size="3" pos="6" show="0" value="0" unmaskedvalue="e0cb4e"/>
      <field name="eth.ig" showname=".... ...0 .... .... .... .... = IG bit: Individual address (unicast)" size="3" pos="6" show="0" value="0" unmaskedvalue="e0cb4e"/>
    </field>
    <field name="eth.type" showname="Type: IP (0x0800)" size="2" pos="12" show="0x0800" value="0800"/>
  </proto>
  <proto name="ip" showname="Internet Protocol Version 4, Src: 132.246.11.228 (132.246.11.228), Dst: 10.48.1.195 (10.48.1.195)" size="20" pos="14">
    <field name="ip.version" showname="Version: 4" size="1" pos="14" show="4" value="45"/>
    <field name="ip.hdr_len" showname="Header length: 20 bytes" size="1" pos="14" show="20" value="45"/>
    <field name="ip.dsfield" showname="Differentiated Services Field: 0x00 (DSCP 0x00: Default; ECN: 0x00: Not-ECT (Not ECN-Capable Transport))" size="1" pos="15" show="0" value="00">
      <field name="ip.dsfield.dscp" showname="0000 00.. = Differentiated Services Codepoint: Default (0x00)" size="1" pos="15" show="0x00" value="0" unmaskedvalue="00"/>
      <field name="ip.dsfield.ecn" showname=".... ..00 = Explicit Congestion Notification: Not-ECT (Not ECN-Capable Transport) (0x00)" size="1" pos="15" show="0x00" value="0" unmaskedvalue="00"/>
    </field>
    <field name="ip.len" showname="Total Length: 76" size="2" pos="16" show="76" value="004c"/>
    <field name="ip.id" showname="Identification: 0x0000 (0)" size="2" pos="18" show="0x0000" value="0000"/>
    <field name="ip.flags" showname="Flags: 0x02 (Don&apos;t Fragment)" size="1" pos="20" show="0x02" value="40">
      <field name="ip.flags.rb" showname="0... .... = Reserved bit: Not set" size="1" pos="20" show="0" value="40"/>
      <field name="ip.flags.df" showname=".1.. .... = Don&apos;t fragment: Set" size="1" pos="20" show="1" value="40"/>
      <field name="ip.flags.mf" showname="..0. .... = More fragments: Not set" size="1" pos="20" show="0" value="40"/>
    </field>
    <field name="ip.frag_offset" showname="Fragment offset: 0" size="2" pos="20" show="0" value="4000"/>
    <field name="ip.ttl" showname="Time to live: 53" size="1" pos="22" show="53" value="35"/>
    <field name="ip.proto" showname="Protocol: UDP (17)" size="1" pos="23" show="17" value="11"/>
    <field name="ip.checksum" showname="Header checksum: 0xa8d4 [correct]" size="2" pos="24" show="0xa8d4" value="a8d4">
      <field name="ip.checksum_good" showname="Good: True" size="2" pos="24" show="1" value="a8d4"/>
      <field name="ip.checksum_bad" showname="Bad: False" size="2" pos="24" show="0" value="a8d4"/>
    </field>
    <field name="ip.src" showname="Source: 132.246.11.228 (132.246.11.228)" size="4" pos="26" show="132.246.11.228" value="84f60be4"/>
    <field name="ip.addr" showname="Source or Destination Address: 132.246.11.228 (132.246.11.228)" hide="yes" size="4" pos="26" show="132.246.11.228" value="84f60be4"/>
    <field name="ip.src_host" showname="Source Host: 132.246.11.228" hide="yes" size="4" pos="26" show="132.246.11.228" value="84f60be4"/>
    <field name="ip.host" showname="Source or Destination Host: 132.246.11.228" hide="yes" size="4" pos="26" show="132.246.11.228" value="84f60be4"/>
    <field name="ip.dst" showname="Destination: 10.48.1.195 (10.48.1.195)" size="4" pos="30" show="10.48.1.195" value="0a3001c3"/>
    <field name="ip.addr" showname="Source or Destination Address: 10.48.1.195 (10.48.1.195)" hide="yes" size="4" pos="30" show="10.48.1.195" value="0a3001c3"/>
    <field name="ip.dst_host" showname="Destination Host: 10.48.1.195" hide="yes" size="4" pos="30" show="10.48.1.195" value="0a3001c3"/>
    <field name="ip.host" showname="Source or Destination Host: 10.48.1.195" hide="yes" size="4" pos="30" show="10.48.1.195" value="0a3001c3"/>
    <field name="" show="Source GeoIP: Unknown" size="4" pos="26" value="84f60be4"/>
    <field name="" show="Destination GeoIP: Unknown" size="4" pos="30" value="0a3001c3"/>
  </proto>
  <proto name="udp" showname="User Datagram Protocol, Src Port: ntp (123), Dst Port: ntp (123)" size="8" pos="34">
    <field name="udp.srcport" showname="Source port: ntp (123)" size="2" pos="34" show="123" value="007b"/>
    <field name="udp.dstport" showname="Destination port: ntp (123)" size="2" pos="36" show="123" value="007b"/>
    <field name="udp.port" showname="Source or Destination Port: 123" hide="yes" size="2" pos="34" show="123" value="007b"/>
    <field name="udp.port" showname="Source or Destination Port: 123" hide="yes" size="2" pos="36" show="123" value="007b"/>
    <field name="udp.length" showname="Length: 56" size="2" pos="38" show="56" value="0038"/>
    <field name="udp.checksum_coverage" showname="Checksum coverage: 56" hide="yes" size="0" pos="38" show="56"/>
    <field name="udp.checksum" showname="Checksum: 0x2342 [validation disabled]" size="2" pos="40" show="0x2342" value="2342">
      <field name="udp.checksum_good" showname="Good Checksum: False" size="2" pos="40" show="0" value="2342"/>
      <field name="udp.checksum_bad" showname="Bad Checksum: False" size="2" pos="40" show="0" value="2342"/>
    </field>
  </proto>
  <proto name="ntp" showname="Network Time Protocol (NTP Version 4, server)" size="48" pos="42">
    <field name="ntp.flags" showname="Flags: 0x24" size="1" pos="42" show="0x24" value="24">
      <field name="ntp.flags.li" showname="00.. .... = Leap Indicator: no warning (0)" size="1" pos="42" show="0" value="0" unmaskedvalue="24"/>
      <field name="ntp.flags.vn" showname="..10 0... = Version number: NTP Version 4 (4)" size="1" pos="42" show="4" value="4" unmaskedvalue="24"/>
      <field name="ntp.flags.mode" showname=".... .100 = Mode: server (4)" size="1" pos="42" show="4" value="4" unmaskedvalue="24"/>
    </field>
    <field name="ntp.stratum" showname="Peer Clock Stratum: secondary reference (2)" size="1" pos="43" show="2" value="02"/>
    <field name="ntp.ppoll" showname="Peer Polling Interval: invalid (3)" size="1" pos="44" show="3" value="03"/>
    <field name="ntp.precision" showname="Peer Clock Precision: 0.000001 sec" size="1" pos="45" show="-20" value="ec"/>
    <field name="ntp.rootdelay" showname="Root Delay:    0.0001 sec" size="4" pos="46" show="0.0001068115234375" value="00000007"/>
    <field name="ntp.rootdispersion" showname="Root Dispersion:    0.0058 sec" size="4" pos="50" show="0.00579833984375" value="0000017c"/>
    <field name="ntp.refid" showname="Reference ID: 132.246.11.231" size="4" pos="54" show="84:f6:0b:e7" value="84f60be7"/>
    <field name="ntp.reftime" showname="Reference Timestamp: Jan  4, 2014 00:31:26.312504000 UTC" size="8" pos="58" show="Jan  3, 2014 21:01:26.312504000" value="d671d4de50004fe9"/>
    <field name="ntp.org" showname="Origin Timestamp: Jan  4, 2014 00:31:56.846636000 UTC" size="8" pos="66" show="Jan  3, 2014 21:01:56.846636000" value="d671d4fcd8bd32aa"/>
    <field name="ntp.rec" showname="Receive Timestamp: Jan  4, 2014 00:31:55.980249000 UTC" size="8" pos="74" show="Jan  3, 2014 21:01:55.980249000" value="d671d4fbfaf1a789"/>
    <field name="ntp.xmt" showname="Transmit Timestamp: Jan  4, 2014 00:31:55.980278000 UTC" size="8" pos="82" show="Jan  3, 2014 21:01:55.980278000" value="d671d4fbfaf38dce"/>
  </proto>
</packet>

<packet>
  <proto name="geninfo" pos="0" showname="General information" size="90">
    <field name="num" pos="0" show="1534" showname="Number" value="5fe" size="90"/>
    <field name="len" pos="0" show="90" showname="Frame Length" value="5a" size="90"/>
    <field name="caplen" pos="0" show="90" showname="Captured Length" value="5a" size="90"/>
    <field name="timestamp" pos="0" show="Jan  3, 2014 21:01:58.446677000 NST" showname="Captured Time" value="1388795518.446677000" size="90"/>
  </proto>
  <proto name="frame" showname="Frame 1534: 90 bytes on wire (720 bits), 90 bytes captured (720 bits) on interface 0" size="90" pos="0">
    <field name="frame.interface_id" showname="Interface id: 0" size="0" pos="0" show="0"/>
    <field name="frame.encap_type" showname="Encapsulation type: Ethernet (1)" size="0" pos="0" show="1"/>
    <field name="frame.time" showname="Arrival Time: Jan  3, 2014 21:01:58.446677000 NST" size="0" pos="0" show="Jan  3, 2014 21:01:58.446677000"/>
    <field name="frame.offset_shift" showname="Time shift for this packet: 0.000000000 seconds" size="0" pos="0" show="0.000000000"/>
    <field name="frame.time_epoch" showname="Epoch Time: 1388795518.446677000 seconds" size="0" pos="0" show="1388795518.446677000"/>
    <field name="frame.time_delta" showname="Time delta from previous captured frame: 1.544095000 seconds" size="0" pos="0" show="1.544095000"/>
    <field name="frame.time_delta_displayed" showname="Time delta from previous displayed frame: 1.544095000 seconds" size="0" pos="0" show="1.544095000"/>
    <field name="frame.time_relative" showname="Time since reference or first frame: 539.473737000 seconds" size="0" pos="0" show="539.473737000"/>
    <field name="frame.number" showname="Frame Number: 1534" size="0" pos="0" show="1534"/>
    <field name="frame.len" showname="Frame Length: 90 bytes (720 bits)" size="0" pos="0" show="90"/>
    <field name="frame.cap_len" showname="Capture Length: 90 bytes (720 bits)" size="0" pos="0" show="90"/>
    <field name="frame.marked" showname="Frame is marked: True" size="0" pos="0" show="1"/>
    <field name="frame.ignored" showname="Frame is ignored: False" size="0" pos="0" show="0"/>
    <field name="frame.protocols" showname="Protocols in frame: eth:ip:udp:ntp" size="0" pos="0" show="eth:ip:udp:ntp"/>
    <field name="frame.coloring_rule.name" showname="Coloring Rule Name: UDP" size="0" pos="0" show="UDP"/>
    <field name="frame.coloring_rule.string" showname="Coloring Rule String: udp" size="0" pos="0" show="udp"/>
  </proto>
  <proto name="eth" showname="Ethernet II, Src: Pegatron_2f:4d:48 (4c:72:b9:2f:4d:48), Dst: AsustekC_f6:97:3e (e0:cb:4e:f6:97:3e)" size="14" pos="0">
    <field name="eth.dst" showname="Destination: AsustekC_f6:97:3e (e0:cb:4e:f6:97:3e)" size="6" pos="0" show="e0:cb:4e:f6:97:3e" value="e0cb4ef6973e">
      <field name="eth.addr" showname="Address: AsustekC_f6:97:3e (e0:cb:4e:f6:97:3e)" size="6" pos="0" show="e0:cb:4e:f6:97:3e" value="e0cb4ef6973e"/>
      <field name="eth.lg" showname=".... ..0. .... .... .... .... = LG bit: Globally unique address (factory default)" size="3" pos="0" show="0" value="0" unmaskedvalue="e0cb4e"/>
      <field name="eth.ig" showname=".... ...0 .... .... .... .... = IG bit: Individual address (unicast)" size="3" pos="0" show="0" value="0" unmaskedvalue="e0cb4e"/>
    </field>
    <field name="eth.src" showname="Source: Pegatron_2f:4d:48 (4c:72:b9:2f:4d:48)" size="6" pos="6" show="4c:72:b9:2f:4d:48" value="4c72b92f4d48">
      <field name="eth.addr" showname="Address: Pegatron_2f:4d:48 (4c:72:b9:2f:4d:48)" size="6" pos="6" show="4c:72:b9:2f:4d:48" value="4c72b92f4d48"/>
      <field name="eth.lg" showname=".... ..0. .... .... .... .... = LG bit: Globally unique address (factory default)" size="3" pos="6" show="0" value="0" unmaskedvalue="4c72b9"/>
      <field name="eth.ig" showname=".... ...0 .... .... .... .... = IG bit: Individual address (unicast)" size="3" pos="6" show="0" value="0" unmaskedvalue="4c72b9"/>
    </field>
    <field name="eth.type" showname="Type: IP (0x0800)" size="2" pos="12" show="0x0800" value="0800"/>
  </proto>
  <proto name="ip" showname="Internet Protocol Version 4, Src: 10.48.1.195 (10.48.1.195), Dst: 132.246.11.227 (132.246.11.227)" size="20" pos="14">
    <field name="ip.version" showname="Version: 4" size="1" pos="14" show="4" value="45"/>
    <field name="ip.hdr_len" showname="Header length: 20 bytes" size="1" pos="14" show="20" value="45"/>
    <field name="ip.dsfield" showname="Differentiated Services Field: 0x00 (DSCP 0x00: Default; ECN: 0x00: Not-ECT (Not ECN-Capable Transport))" size="1" pos="15" show="0" value="00">
      <field name="ip.dsfield.dscp" showname="0000 00.. = Differentiated Services Codepoint: Default (0x00)" size="1" pos="15" show="0x00" value="0" unmaskedvalue="00"/>
      <field name="ip.dsfield.ecn" showname=".... ..00 = Explicit Congestion Notification: Not-ECT (Not ECN-Capable Transport) (0x00)" size="1" pos="15" show="0x00" value="0" unmaskedvalue="00"/>
    </field>
    <field name="ip.len" showname="Total Length: 76" size="2" pos="16" show="76" value="004c"/>
    <field name="ip.id" showname="Identification: 0xc50f (50447)" size="2" pos="18" show="0xc50f" value="c50f"/>
    <field name="ip.flags" showname="Flags: 0x02 (Don&apos;t Fragment)" size="1" pos="20" show="0x02" value="40">
      <field name="ip.flags.rb" showname="0... .... = Reserved bit: Not set" size="1" pos="20" show="0" value="40"/>
      <field name="ip.flags.df" showname=".1.. .... = Don&apos;t fragment: Set" size="1" pos="20" show="1" value="40"/>
      <field name="ip.flags.mf" showname="..0. .... = More fragments: Not set" size="1" pos="20" show="0" value="40"/>
    </field>
    <field name="ip.frag_offset" showname="Fragment offset: 0" size="2" pos="20" show="0" value="4000"/>
    <field name="ip.ttl" showname="Time to live: 64" size="1" pos="22" show="64" value="40"/>
    <field name="ip.proto" showname="Protocol: UDP (17)" size="1" pos="23" show="17" value="11"/>
    <field name="ip.checksum" showname="Header checksum: 0xd8c5 [correct]" size="2" pos="24" show="0xd8c5" value="d8c5">
      <field name="ip.checksum_good" showname="Good: True" size="2" pos="24" show="1" value="d8c5"/>
      <field name="ip.checksum_bad" showname="Bad: False" size="2" pos="24" show="0" value="d8c5"/>
    </field>
    <field name="ip.src" showname="Source: 10.48.1.195 (10.48.1.195)" size="4" pos="26" show="10.48.1.195" value="0a3001c3"/>
    <field name="ip.addr" showname="Source or Destination Address: 10.48.1.195 (10.48.1.195)" hide="yes" size="4" pos="26" show="10.48.1.195" value="0a3001c3"/>
    <field name="ip.src_host" showname="Source Host: 10.48.1.195" hide="yes" size="4" pos="26" show="10.48.1.195" value="0a3001c3"/>
    <field name="ip.host" showname="Source or Destination Host: 10.48.1.195" hide="yes" size="4" pos="26" show="10.48.1.195" value="0a3001c3"/>
    <field name="ip.dst" showname="Destination: 132.246.11.227 (132.246.11.227)" size="4" pos="30" show="132.246.11.227" value="84f60be3"/>
    <field name="ip.addr" showname="Source or Destination Address: 132.246.11.227 (132.246.11.227)" hide="yes" size="4" pos="30" show="132.246.11.227" value="84f60be3"/>
    <field name="ip.dst_host" showname="Destination Host: 132.246.11.227" hide="yes" size="4" pos="30" show="132.246.11.227" value="84f60be3"/>
    <field name="ip.host" showname="Source or Destination Host: 132.246.11.227" hide="yes" size="4" pos="30" show="132.246.11.227" value="84f60be3"/>
    <field name="" show="Source GeoIP: Unknown" size="4" pos="26" value="0a3001c3"/>
    <field name="" show="Destination GeoIP: Unknown" size="4" pos="30" value="84f60be3"/>
  </proto>
  <proto name="udp" showname="User Datagram Protocol, Src Port: ntp (123), Dst Port: ntp (123)" size="8" pos="34">
    <field name="udp.srcport" showname="Source port: ntp (123)" size="2" pos="34" show="123" value="007b"/>
    <field name="udp.dstport" showname="Destination port: ntp (123)" size="2" pos="36" show="123" value="007b"/>
    <field name="udp.port" showname="Source or Destination Port: 123" hide="yes" size="2" pos="34" show="123" value="007b"/>
    <field name="udp.port" showname="Source or Destination Port: 123" hide="yes" size="2" pos="36" show="123" value="007b"/>
    <field name="udp.length" showname="Length: 56" size="2" pos="38" show="56" value="0038"/>
    <field name="udp.checksum_coverage" showname="Checksum coverage: 56" hide="yes" size="0" pos="38" show="56"/>
    <field name="udp.checksum" showname="Checksum: 0xb7d4 [validation disabled]" size="2" pos="40" show="0xb7d4" value="b7d4">
      <field name="udp.checksum_good" showname="Good Checksum: False" size="2" pos="40" show="0" value="b7d4"/>
      <field name="udp.checksum_bad" showname="Bad Checksum: False" size="2" pos="40" show="0" value="b7d4"/>
    </field>
  </proto>
  <proto name="ntp" showname="Network Time Protocol (NTP Version 4, client)" size="48" pos="42">
    <field name="ntp.flags" showname="Flags: 0xe3" size="1" pos="42" show="0xe3" value="e3">
      <field name="ntp.flags.li" showname="11.. .... = Leap Indicator: unknown (clock unsynchronized) (3)" size="1" pos="42" show="3" value="3" unmaskedvalue="e3"/>
      <field name="ntp.flags.vn" showname="..10 0... = Version number: NTP Version 4 (4)" size="1" pos="42" show="4" value="4" unmaskedvalue="e3"/>
      <field name="ntp.flags.mode" showname=".... .011 = Mode: client (3)" size="1" pos="42" show="3" value="3" unmaskedvalue="e3"/>
    </field>
    <field name="ntp.stratum" showname="Peer Clock Stratum: unspecified or invalid (0)" size="1" pos="43" show="0" value="00"/>
    <field name="ntp.ppoll" showname="Peer Polling Interval: invalid (3)" size="1" pos="44" show="3" value="03"/>
    <field name="ntp.precision" showname="Peer Clock Precision: 0.015625 sec" size="1" pos="45" show="-6" value="fa"/>
    <field name="ntp.rootdelay" showname="Root Delay:    1.0000 sec" size="4" pos="46" show="1" value="00010000"/>
    <field name="ntp.rootdispersion" showname="Root Dispersion:    1.0000 sec" size="4" pos="50" show="1" value="00010000"/>
    <field name="ntp.refid" showname="Reference ID: NULL" size="4" pos="54" show="00:00:00:00" value="00000000"/>
    <field name="ntp.reftime" showname="Reference Timestamp: Jan  1, 1970 00:00:00.000000000 UTC" size="8" pos="58" show="Dec 31, 1969 20:30:00.000000000" value="0000000000000000"/>
    <field name="ntp.org" showname="Origin Timestamp: Jan  1, 1970 00:00:00.000000000 UTC" size="8" pos="66" show="Dec 31, 1969 20:30:00.000000000" value="0000000000000000"/>
    <field name="ntp.rec" showname="Receive Timestamp: Jan  1, 1970 00:00:00.000000000 UTC" size="8" pos="74" show="Dec 31, 1969 20:30:00.000000000" value="0000000000000000"/>
    <field name="ntp.xmt" showname="Transmit Timestamp: Jan  4, 2014 00:31:58.446634000 UTC" size="8" pos="82" show="Jan  3, 2014 21:01:58.446634000" value="d671d4fe7256a523"/>
  </proto>
</packet>

<packet>
  <proto name="geninfo" pos="0" showname="General information" size="90">
    <field name="num" pos="0" show="1535" showname="Number" value="5ff" size="90"/>
    <field name="len" pos="0" show="90" showname="Frame Length" value="5a" size="90"/>
    <field name="caplen" pos="0" show="90" showname="Captured Length" value="5a" size="90"/>
    <field name="timestamp" pos="0" show="Jan  3, 2014 21:01:58.646678000 NST" showname="Captured Time" value="1388795518.646678000" size="90"/>
  </proto>
  <proto name="frame" showname="Frame 1535: 90 bytes on wire (720 bits), 90 bytes captured (720 bits) on interface 0" size="90" pos="0">
    <field name="frame.interface_id" showname="Interface id: 0" size="0" pos="0" show="0"/>
    <field name="frame.encap_type" showname="Encapsulation type: Ethernet (1)" size="0" pos="0" show="1"/>
    <field name="frame.time" showname="Arrival Time: Jan  3, 2014 21:01:58.646678000 NST" size="0" pos="0" show="Jan  3, 2014 21:01:58.646678000"/>
    <field name="frame.offset_shift" showname="Time shift for this packet: 0.000000000 seconds" size="0" pos="0" show="0.000000000"/>
    <field name="frame.time_epoch" showname="Epoch Time: 1388795518.646678000 seconds" size="0" pos="0" show="1388795518.646678000"/>
    <field name="frame.time_delta" showname="Time delta from previous captured frame: 0.200001000 seconds" size="0" pos="0" show="0.200001000"/>
    <field name="frame.time_delta_displayed" showname="Time delta from previous displayed frame: 0.200001000 seconds" size="0" pos="0" show="0.200001000"/>
    <field name="frame.time_relative" showname="Time since reference or first frame: 539.673738000 seconds" size="0" pos="0" show="539.673738000"/>
    <field name="frame.number" showname="Frame Number: 1535" size="0" pos="0" show="1535"/>
    <field name="frame.len" showname="Frame Length: 90 bytes (720 bits)" size="0" pos="0" show="90"/>
    <field name="frame.cap_len" showname="Capture Length: 90 bytes (720 bits)" size="0" pos="0" show="90"/>
    <field name="frame.marked" showname="Frame is marked: True" size="0" pos="0" show="1"/>
    <field name="frame.ignored" showname="Frame is ignored: False" size="0" pos="0" show="0"/>
    <field name="frame.protocols" showname="Protocols in frame: eth:ip:udp:ntp" size="0" pos="0" show="eth:ip:udp:ntp"/>
    <field name="frame.coloring_rule.name" showname="Coloring Rule Name: UDP" size="0" pos="0" show="UDP"/>
    <field name="frame.coloring_rule.string" showname="Coloring Rule String: udp" size="0" pos="0" show="udp"/>
  </proto>
  <proto name="eth" showname="Ethernet II, Src: Pegatron_2f:4d:48 (4c:72:b9:2f:4d:48), Dst: AsustekC_f6:97:3e (e0:cb:4e:f6:97:3e)" size="14" pos="0">
    <field name="eth.dst" showname="Destination: AsustekC_f6:97:3e (e0:cb:4e:f6:97:3e)" size="6" pos="0" show="e0:cb:4e:f6:97:3e" value="e0cb4ef6973e">
      <field name="eth.addr" showname="Address: AsustekC_f6:97:3e (e0:cb:4e:f6:97:3e)" size="6" pos="0" show="e0:cb:4e:f6:97:3e" value="e0cb4ef6973e"/>
      <field name="eth.lg" showname=".... ..0. .... .... .... .... = LG bit: Globally unique address (factory default)" size="3" pos="0" show="0" value="0" unmaskedvalue="e0cb4e"/>
      <field name="eth.ig" showname=".... ...0 .... .... .... .... = IG bit: Individual address (unicast)" size="3" pos="0" show="0" value="0" unmaskedvalue="e0cb4e"/>
    </field>
    <field name="eth.src" showname="Source: Pegatron_2f:4d:48 (4c:72:b9:2f:4d:48)" size="6" pos="6" show="4c:72:b9:2f:4d:48" value="4c72b92f4d48">
      <field name="eth.addr" showname="Address: Pegatron_2f:4d:48 (4c:72:b9:2f:4d:48)" size="6" pos="6" show="4c:72:b9:2f:4d:48" value="4c72b92f4d48"/>
      <field name="eth.lg" showname=".... ..0. .... .... .... .... = LG bit: Globally unique address (factory default)" size="3" pos="6" show="0" value="0" unmaskedvalue="4c72b9"/>
      <field name="eth.ig" showname=".... ...0 .... .... .... .... = IG bit: Individual address (unicast)" size="3" pos="6" show="0" value="0" unmaskedvalue="4c72b9"/>
    </field>
    <field name="eth.type" showname="Type: IP (0x0800)" size="2" pos="12" show="0x0800" value="0800"/>
  </proto>
  <proto name="ip" showname="Internet Protocol Version 4, Src: 10.48.1.195 (10.48.1.195), Dst: 132.246.11.229 (132.246.11.229)" size="20" pos="14">
    <field name="ip.version" showname="Version: 4" size="1" pos="14" show="4" value="45"/>
    <field name="ip.hdr_len" showname="Header length: 20 bytes" size="1" pos="14" show="20" value="45"/>
    <field name="ip.dsfield" showname="Differentiated Services Field: 0x00 (DSCP 0x00: Default; ECN: 0x00: Not-ECT (Not ECN-Capable Transport))" size="1" pos="15" show="0" value="00">
      <field name="ip.dsfield.dscp" showname="0000 00.. = Differentiated Services Codepoint: Default (0x00)" size="1" pos="15" show="0x00" value="0" unmaskedvalue="00"/>
      <field name="ip.dsfield.ecn" showname=".... ..00 = Explicit Congestion Notification: Not-ECT (Not ECN-Capable Transport) (0x00)" size="1" pos="15" show="0x00" value="0" unmaskedvalue="00"/>
    </field>
    <field name="ip.len" showname="Total Length: 76" size="2" pos="16" show="76" value="004c"/>
    <field name="ip.id" showname="Identification: 0x524e (21070)" size="2" pos="18" show="0x524e" value="524e"/>
    <field name="ip.flags" showname="Flags: 0x02 (Don&apos;t Fragment)" size="1" pos="20" show="0x02" value="40">
      <field name="ip.flags.rb" showname="0... .... = Reserved bit: Not set" size="1" pos="20" show="0" value="40"/>
      <field name="ip.flags.df" showname=".1.. .... = Don&apos;t fragment: Set" size="1" pos="20" show="1" value="40"/>
      <field name="ip.flags.mf" showname="..0. .... = More fragments: Not set" size="1" pos="20" show="0" value="40"/>
    </field>
    <field name="ip.frag_offset" showname="Fragment offset: 0" size="2" pos="20" show="0" value="4000"/>
    <field name="ip.ttl" showname="Time to live: 64" size="1" pos="22" show="64" value="40"/>
    <field name="ip.proto" showname="Protocol: UDP (17)" size="1" pos="23" show="17" value="11"/>
    <field name="ip.checksum" showname="Header checksum: 0x4b85 [correct]" size="2" pos="24" show="0x4b85" value="4b85">
      <field name="ip.checksum_good" showname="Good: True" size="2" pos="24" show="1" value="4b85"/>
      <field name="ip.checksum_bad" showname="Bad: False" size="2" pos="24" show="0" value="4b85"/>
    </field>
    <field name="ip.src" showname="Source: 10.48.1.195 (10.48.1.195)" size="4" pos="26" show="10.48.1.195" value="0a3001c3"/>
    <field name="ip.addr" showname="Source or Destination Address: 10.48.1.195 (10.48.1.195)" hide="yes" size="4" pos="26" show="10.48.1.195" value="0a3001c3"/>
    <field name="ip.src_host" showname="Source Host: 10.48.1.195" hide="yes" size="4" pos="26" show="10.48.1.195" value="0a3001c3"/>
    <field name="ip.host" showname="Source or Destination Host: 10.48.1.195" hide="yes" size="4" pos="26" show="10.48.1.195" value="0a3001c3"/>
    <field name="ip.dst" showname="Destination: 132.246.11.229 (132.246.11.229)" size="4" pos="30" show="132.246.11.229" value="84f60be5"/>
    <field name="ip.addr" showname="Source or Destination Address: 132.246.11.229 (132.246.11.229)" hide="yes" size="4" pos="30" show="132.246.11.229" value="84f60be5"/>
    <field name="ip.dst_host" showname="Destination Host: 132.246.11.229" hide="yes" size="4" pos="30" show="132.246.11.229" value="84f60be5"/>
    <field name="ip.host" showname="Source or Destination Host: 132.246.11.229" hide="yes" size="4" pos="30" show="132.246.11.229" value="84f60be5"/>
    <field name="" show="Source GeoIP: Unknown" size="4" pos="26" value="0a3001c3"/>
    <field name="" show="Destination GeoIP: Unknown" size="4" pos="30" value="84f60be5"/>
  </proto>
  <proto name="udp" showname="User Datagram Protocol, Src Port: ntp (123), Dst Port: ntp (123)" size="8" pos="34">
    <field name="udp.srcport" showname="Source port: ntp (123)" size="2" pos="34" show="123" value="007b"/>
    <field name="udp.dstport" showname="Destination port: ntp (123)" size="2" pos="36" show="123" value="007b"/>
    <field name="udp.port" showname="Source or Destination Port: 123" hide="yes" size="2" pos="34" show="123" value="007b"/>
    <field name="udp.port" showname="Source or Destination Port: 123" hide="yes" size="2" pos="36" show="123" value="007b"/>
    <field name="udp.length" showname="Length: 56" size="2" pos="38" show="56" value="0038"/>
    <field name="udp.checksum_coverage" showname="Checksum coverage: 56" hide="yes" size="0" pos="38" show="56"/>
    <field name="udp.checksum" showname="Checksum: 0x2aea [validation disabled]" size="2" pos="40" show="0x2aea" value="2aea">
      <field name="udp.checksum_good" showname="Good Checksum: False" size="2" pos="40" show="0" value="2aea"/>
      <field name="udp.checksum_bad" showname="Bad Checksum: False" size="2" pos="40" show="0" value="2aea"/>
    </field>
  </proto>
  <proto name="ntp" showname="Network Time Protocol (NTP Version 4, client)" size="48" pos="42">
    <field name="ntp.flags" showname="Flags: 0xe3" size="1" pos="42" show="0xe3" value="e3">
      <field name="ntp.flags.li" showname="11.. .... = Leap Indicator: unknown (clock unsynchronized) (3)" size="1" pos="42" show="3" value="3" unmaskedvalue="e3"/>
      <field name="ntp.flags.vn" showname="..10 0... = Version number: NTP Version 4 (4)" size="1" pos="42" show="4" value="4" unmaskedvalue="e3"/>
      <field name="ntp.flags.mode" showname=".... .011 = Mode: client (3)" size="1" pos="42" show="3" value="3" unmaskedvalue="e3"/>
    </field>
    <field name="ntp.stratum" showname="Peer Clock Stratum: unspecified or invalid (0)" size="1" pos="43" show="0" value="00"/>
    <field name="ntp.ppoll" showname="Peer Polling Interval: invalid (3)" size="1" pos="44" show="3" value="03"/>
    <field name="ntp.precision" showname="Peer Clock Precision: 0.015625 sec" size="1" pos="45" show="-6" value="fa"/>
    <field name="ntp.rootdelay" showname="Root Delay:    1.0000 sec" size="4" pos="46" show="1" value="00010000"/>
    <field name="ntp.rootdispersion" showname="Root Dispersion:    1.0000 sec" size="4" pos="50" show="1" value="00010000"/>
    <field name="ntp.refid" showname="Reference ID: NULL" size="4" pos="54" show="00:00:00:00" value="00000000"/>
    <field name="ntp.reftime" showname="Reference Timestamp: Jan  1, 1970 00:00:00.000000000 UTC" size="8" pos="58" show="Dec 31, 1969 20:30:00.000000000" value="0000000000000000"/>
    <field name="ntp.org" showname="Origin Timestamp: Jan  1, 1970 00:00:00.000000000 UTC" size="8" pos="66" show="Dec 31, 1969 20:30:00.000000000" value="0000000000000000"/>
    <field name="ntp.rec" showname="Receive Timestamp: Jan  1, 1970 00:00:00.000000000 UTC" size="8" pos="74" show="Dec 31, 1969 20:30:00.000000000" value="0000000000000000"/>
    <field name="ntp.xmt" showname="Transmit Timestamp: Jan  4, 2014 00:31:58.646636000 UTC" size="8" pos="82" show="Jan  3, 2014 21:01:58.646636000" value="d671d4fea589fed8"/>
  </proto>
</packet>

<packet>
  <proto name="geninfo" pos="0" showname="General information" size="90">
    <field name="num" pos="0" show="1536" showname="Number" value="600" size="90"/>
    <field name="len" pos="0" show="90" showname="Frame Length" value="5a" size="90"/>
    <field name="caplen" pos="0" show="90" showname="Captured Length" value="5a" size="90"/>
    <field name="timestamp" pos="0" show="Jan  3, 2014 21:01:58.702898000 NST" showname="Captured Time" value="1388795518.702898000" size="90"/>
  </proto>
  <proto name="frame" showname="Frame 1536: 90 bytes on wire (720 bits), 90 bytes captured (720 bits) on interface 0" size="90" pos="0">
    <field name="frame.interface_id" showname="Interface id: 0" size="0" pos="0" show="0"/>
    <field name="frame.encap_type" showname="Encapsulation type: Ethernet (1)" size="0" pos="0" show="1"/>
    <field name="frame.time" showname="Arrival Time: Jan  3, 2014 21:01:58.702898000 NST" size="0" pos="0" show="Jan  3, 2014 21:01:58.702898000"/>
    <field name="frame.offset_shift" showname="Time shift for this packet: 0.000000000 seconds" size="0" pos="0" show="0.000000000"/>
    <field name="frame.time_epoch" showname="Epoch Time: 1388795518.702898000 seconds" size="0" pos="0" show="1388795518.702898000"/>
    <field name="frame.time_delta" showname="Time delta from previous captured frame: 0.056220000 seconds" size="0" pos="0" show="0.056220000"/>
    <field name="frame.time_delta_displayed" showname="Time delta from previous displayed frame: 0.056220000 seconds" size="0" pos="0" show="0.056220000"/>
    <field name="frame.time_relative" showname="Time since reference or first frame: 539.729958000 seconds" size="0" pos="0" show="539.729958000"/>
    <field name="frame.number" showname="Frame Number: 1536" size="0" pos="0" show="1536"/>
    <field name="frame.len" showname="Frame Length: 90 bytes (720 bits)" size="0" pos="0" show="90"/>
    <field name="frame.cap_len" showname="Capture Length: 90 bytes (720 bits)" size="0" pos="0" show="90"/>
    <field name="frame.marked" showname="Frame is marked: True" size="0" pos="0" show="1"/>
    <field name="frame.ignored" showname="Frame is ignored: False" size="0" pos="0" show="0"/>
    <field name="frame.protocols" showname="Protocols in frame: eth:ip:udp:ntp" size="0" pos="0" show="eth:ip:udp:ntp"/>
    <field name="frame.coloring_rule.name" showname="Coloring Rule Name: UDP" size="0" pos="0" show="UDP"/>
    <field name="frame.coloring_rule.string" showname="Coloring Rule String: udp" size="0" pos="0" show="udp"/>
  </proto>
  <proto name="eth" showname="Ethernet II, Src: AsustekC_f6:97:3e (e0:cb:4e:f6:97:3e), Dst: Pegatron_2f:4d:48 (4c:72:b9:2f:4d:48)" size="14" pos="0">
    <field name="eth.dst" showname="Destination: Pegatron_2f:4d:48 (4c:72:b9:2f:4d:48)" size="6" pos="0" show="4c:72:b9:2f:4d:48" value="4c72b92f4d48">
      <field name="eth.addr" showname="Address: Pegatron_2f:4d:48 (4c:72:b9:2f:4d:48)" size="6" pos="0" show="4c:72:b9:2f:4d:48" value="4c72b92f4d48"/>
      <field name="eth.lg" showname=".... ..0. .... .... .... .... = LG bit: Globally unique address (factory default)" size="3" pos="0" show="0" value="0" unmaskedvalue="4c72b9"/>
      <field name="eth.ig" showname=".... ...0 .... .... .... .... = IG bit: Individual address (unicast)" size="3" pos="0" show="0" value="0" unmaskedvalue="4c72b9"/>
    </field>
    <field name="eth.src" showname="Source: AsustekC_f6:97:3e (e0:cb:4e:f6:97:3e)" size="6" pos="6" show="e0:cb:4e:f6:97:3e" value="e0cb4ef6973e">
      <field name="eth.addr" showname="Address: AsustekC_f6:97:3e (e0:cb:4e:f6:97:3e)" size="6" pos="6" show="e0:cb:4e:f6:97:3e" value="e0cb4ef6973e"/>
      <field name="eth.lg" showname=".... ..0. .... .... .... .... = LG bit: Globally unique address (factory default)" size="3" pos="6" show="0" value="0" unmaskedvalue="e0cb4e"/>
      <field name="eth.ig" showname=".... ...0 .... .... .... .... = IG bit: Individual address (unicast)" size="3" pos="6" show="0" value="0" unmaskedvalue="e0cb4e"/>
    </field>
    <field name="eth.type" showname="Type: IP (0x0800)" size="2" pos="12" show="0x0800" value="0800"/>
  </proto>
  <proto name="ip" showname="Internet Protocol Version 4, Src: 132.246.11.229 (132.246.11.229), Dst: 10.48.1.195 (10.48.1.195)" size="20" pos="14">
    <field name="ip.version" showname="Version: 4" size="1" pos="14" show="4" value="45"/>
    <field name="ip.hdr_len" showname="Header length: 20 bytes" size="1" pos="14" show="20" value="45"/>
    <field name="ip.dsfield" showname="Differentiated Services Field: 0x00 (DSCP 0x00: Default; ECN: 0x00: Not-ECT (Not ECN-Capable Transport))" size="1" pos="15" show="0" value="00">
      <field name="ip.dsfield.dscp" showname="0000 00.. = Differentiated Services Codepoint: Default (0x00)" size="1" pos="15" show="0x00" value="0" unmaskedvalue="00"/>
      <field name="ip.dsfield.ecn" showname=".... ..00 = Explicit Congestion Notification: Not-ECT (Not ECN-Capable Transport) (0x00)" size="1" pos="15" show="0x00" value="0" unmaskedvalue="00"/>
    </field>
    <field name="ip.len" showname="Total Length: 76" size="2" pos="16" show="76" value="004c"/>
    <field name="ip.id" showname="Identification: 0x0000 (0)" size="2" pos="18" show="0x0000" value="0000"/>
    <field name="ip.flags" showname="Flags: 0x02 (Don&apos;t Fragment)" size="1" pos="20" show="0x02" value="40">
      <field name="ip.flags.rb" showname="0... .... = Reserved bit: Not set" size="1" pos="20" show="0" value="40"/>
      <field name="ip.flags.df" showname=".1.. .... = Don&apos;t fragment: Set" size="1" pos="20" show="1" value="40"/>
      <field name="ip.flags.mf" showname="..0. .... = More fragments: Not set" size="1" pos="20" show="0" value="40"/>
    </field>
    <field name="ip.frag_offset" showname="Fragment offset: 0" size="2" pos="20" show="0" value="4000"/>
    <field name="ip.ttl" showname="Time to live: 53" size="1" pos="22" show="53" value="35"/>
    <field name="ip.proto" showname="Protocol: UDP (17)" size="1" pos="23" show="17" value="11"/>
    <field name="ip.checksum" showname="Header checksum: 0xa8d3 [correct]" size="2" pos="24" show="0xa8d3" value="a8d3">
      <field name="ip.checksum_good" showname="Good: True" size="2" pos="24" show="1" value="a8d3"/>
      <field name="ip.checksum_bad" showname="Bad: False" size="2" pos="24" show="0" value="a8d3"/>
    </field>
    <field name="ip.src" showname="Source: 132.246.11.229 (132.246.11.229)" size="4" pos="26" show="132.246.11.229" value="84f60be5"/>
    <field name="ip.addr" showname="Source or Destination Address: 132.246.11.229 (132.246.11.229)" hide="yes" size="4" pos="26" show="132.246.11.229" value="84f60be5"/>
    <field name="ip.src_host" showname="Source Host: 132.246.11.229" hide="yes" size="4" pos="26" show="132.246.11.229" value="84f60be5"/>
    <field name="ip.host" showname="Source or Destination Host: 132.246.11.229" hide="yes" size="4" pos="26" show="132.246.11.229" value="84f60be5"/>
    <field name="ip.dst" showname="Destination: 10.48.1.195 (10.48.1.195)" size="4" pos="30" show="10.48.1.195" value="0a3001c3"/>
    <field name="ip.addr" showname="Source or Destination Address: 10.48.1.195 (10.48.1.195)" hide="yes" size="4" pos="30" show="10.48.1.195" value="0a3001c3"/>
    <field name="ip.dst_host" showname="Destination Host: 10.48.1.195" hide="yes" size="4" pos="30" show="10.48.1.195" value="0a3001c3"/>
    <field name="ip.host" showname="Source or Destination Host: 10.48.1.195" hide="yes" size="4" pos="30" show="10.48.1.195" value="0a3001c3"/>
    <field name="" show="Source GeoIP: Unknown" size="4" pos="26" value="84f60be5"/>
    <field name="" show="Destination GeoIP: Unknown" size="4" pos="30" value="0a3001c3"/>
  </proto>
  <proto name="udp" showname="User Datagram Protocol, Src Port: ntp (123), Dst Port: ntp (123)" size="8" pos="34">
    <field name="udp.srcport" showname="Source port: ntp (123)" size="2" pos="34" show="123" value="007b"/>
    <field name="udp.dstport" showname="Destination port: ntp (123)" size="2" pos="36" show="123" value="007b"/>
    <field name="udp.port" showname="Source or Destination Port: 123" hide="yes" size="2" pos="34" show="123" value="007b"/>
    <field name="udp.port" showname="Source or Destination Port: 123" hide="yes" size="2" pos="36" show="123" value="007b"/>
    <field name="udp.length" showname="Length: 56" size="2" pos="38" show="56" value="0038"/>
    <field name="udp.checksum_coverage" showname="Checksum coverage: 56" hide="yes" size="0" pos="38" show="56"/>
    <field name="udp.checksum" showname="Checksum: 0x8cc4 [validation disabled]" size="2" pos="40" show="0x8cc4" value="8cc4">
      <field name="udp.checksum_good" showname="Good Checksum: False" size="2" pos="40" show="0" value="8cc4"/>
      <field name="udp.checksum_bad" showname="Bad Checksum: False" size="2" pos="40" show="0" value="8cc4"/>
    </field>
  </proto>
  <proto name="ntp" showname="Network Time Protocol (NTP Version 4, server)" size="48" pos="42">
    <field name="ntp.flags" showname="Flags: 0x24" size="1" pos="42" show="0x24" value="24">
      <field name="ntp.flags.li" showname="00.. .... = Leap Indicator: no warning (0)" size="1" pos="42" show="0" value="0" unmaskedvalue="24"/>
      <field name="ntp.flags.vn" showname="..10 0... = Version number: NTP Version 4 (4)" size="1" pos="42" show="4" value="4" unmaskedvalue="24"/>
      <field name="ntp.flags.mode" showname=".... .100 = Mode: server (4)" size="1" pos="42" show="4" value="4" unmaskedvalue="24"/>
    </field>
    <field name="ntp.stratum" showname="Peer Clock Stratum: secondary reference (2)" size="1" pos="43" show="2" value="02"/>
    <field name="ntp.ppoll" showname="Peer Polling Interval: invalid (3)" size="1" pos="44" show="3" value="03"/>
    <field name="ntp.precision" showname="Peer Clock Precision: 0.000001 sec" size="1" pos="45" show="-20" value="ec"/>
    <field name="ntp.rootdelay" showname="Root Delay:    0.0001 sec" size="4" pos="46" show="0.0001373291015625" value="00000009"/>
    <field name="ntp.rootdispersion" showname="Root Dispersion:    0.0065 sec" size="4" pos="50" show="0.0065460205078125" value="000001ad"/>
    <field name="ntp.refid" showname="Reference ID: 132.246.11.233" size="4" pos="54" show="84:f6:0b:e9" value="84f60be9"/>
    <field name="ntp.reftime" showname="Reference Timestamp: Jan  4, 2014 00:29:38.525288000 UTC" size="8" pos="58" show="Jan  3, 2014 20:59:38.525288000" value="d671d47286795043"/>
    <field name="ntp.org" showname="Origin Timestamp: Jan  4, 2014 00:31:58.646636000 UTC" size="8" pos="66" show="Jan  3, 2014 21:01:58.646636000" value="d671d4fea589fed8"/>
    <field name="ntp.rec" showname="Receive Timestamp: Jan  4, 2014 00:31:57.782825000 UTC" size="8" pos="74" show="Jan  3, 2014 21:01:57.782825000" value="d671d4fdc86742c4"/>
    <field name="ntp.xmt" showname="Transmit Timestamp: Jan  4, 2014 00:31:57.782853000 UTC" size="8" pos="82" show="Jan  3, 2014 21:01:57.782853000" value="d671d4fdc8691e88"/>
  </proto>
</packet>

<packet>
  <proto name="geninfo" pos="0" showname="General information" size="90">
    <field name="num" pos="0" show="1537" showname="Number" value="601" size="90"/>
    <field name="len" pos="0" show="90" showname="Frame Length" value="5a" size="90"/>
    <field name="caplen" pos="0" show="90" showname="Captured Length" value="5a" size="90"/>
    <field name="timestamp" pos="0" show="Jan  3, 2014 21:01:58.846676000 NST" showname="Captured Time" value="1388795518.846676000" size="90"/>
  </proto>
  <proto name="frame" showname="Frame 1537: 90 bytes on wire (720 bits), 90 bytes captured (720 bits) on interface 0" size="90" pos="0">
    <field name="frame.interface_id" showname="Interface id: 0" size="0" pos="0" show="0"/>
    <field name="frame.encap_type" showname="Encapsulation type: Ethernet (1)" size="0" pos="0" show="1"/>
    <field name="frame.time" showname="Arrival Time: Jan  3, 2014 21:01:58.846676000 NST" size="0" pos="0" show="Jan  3, 2014 21:01:58.846676000"/>
    <field name="frame.offset_shift" showname="Time shift for this packet: 0.000000000 seconds" size="0" pos="0" show="0.000000000"/>
    <field name="frame.time_epoch" showname="Epoch Time: 1388795518.846676000 seconds" size="0" pos="0" show="1388795518.846676000"/>
    <field name="frame.time_delta" showname="Time delta from previous captured frame: 0.143778000 seconds" size="0" pos="0" show="0.143778000"/>
    <field name="frame.time_delta_displayed" showname="Time delta from previous displayed frame: 0.143778000 seconds" size="0" pos="0" show="0.143778000"/>
    <field name="frame.time_relative" showname="Time since reference or first frame: 539.873736000 seconds" size="0" pos="0" show="539.873736000"/>
    <field name="frame.number" showname="Frame Number: 1537" size="0" pos="0" show="1537"/>
    <field name="frame.len" showname="Frame Length: 90 bytes (720 bits)" size="0" pos="0" show="90"/>
    <field name="frame.cap_len" showname="Capture Length: 90 bytes (720 bits)" size="0" pos="0" show="90"/>
    <field name="frame.marked" showname="Frame is marked: True" size="0" pos="0" show="1"/>
    <field name="frame.ignored" showname="Frame is ignored: False" size="0" pos="0" show="0"/>
    <field name="frame.protocols" showname="Protocols in frame: eth:ip:udp:ntp" size="0" pos="0" show="eth:ip:udp:ntp"/>
    <field name="frame.coloring_rule.name" showname="Coloring Rule Name: UDP" size="0" pos="0" show="UDP"/>
    <field name="frame.coloring_rule.string" showname="Coloring Rule String: udp" size="0" pos="0" show="udp"/>
  </proto>
  <proto name="eth" showname="Ethernet II, Src: Pegatron_2f:4d:48 (4c:72:b9:2f:4d:48), Dst: AsustekC_f6:97:3e (e0:cb:4e:f6:97:3e)" size="14" pos="0">
    <field name="eth.dst" showname="Destination: AsustekC_f6:97:3e (e0:cb:4e:f6:97:3e)" size="6" pos="0" show="e0:cb:4e:f6:97:3e" value="e0cb4ef6973e">
      <field name="eth.addr" showname="Address: AsustekC_f6:97:3e (e0:cb:4e:f6:97:3e)" size="6" pos="0" show="e0:cb:4e:f6:97:3e" value="e0cb4ef6973e"/>
      <field name="eth.lg" showname=".... ..0. .... .... .... .... = LG bit: Globally unique address (factory default)" size="3" pos="0" show="0" value="0" unmaskedvalue="e0cb4e"/>
      <field name="eth.ig" showname=".... ...0 .... .... .... .... = IG bit: Individual address (unicast)" size="3" pos="0" show="0" value="0" unmaskedvalue="e0cb4e"/>
    </field>
    <field name="eth.src" showname="Source: Pegatron_2f:4d:48 (4c:72:b9:2f:4d:48)" size="6" pos="6" show="4c:72:b9:2f:4d:48" value="4c72b92f4d48">
      <field name="eth.addr" showname="Address: Pegatron_2f:4d:48 (4c:72:b9:2f:4d:48)" size="6" pos="6" show="4c:72:b9:2f:4d:48" value="4c72b92f4d48"/>
      <field name="eth.lg" showname=".... ..0. .... .... .... .... = LG bit: Globally unique address (factory default)" size="3" pos="6" show="0" value="0" unmaskedvalue="4c72b9"/>
      <field name="eth.ig" showname=".... ...0 .... .... .... .... = IG bit: Individual address (unicast)" size="3" pos="6" show="0" value="0" unmaskedvalue="4c72b9"/>
    </field>
    <field name="eth.type" showname="Type: IP (0x0800)" size="2" pos="12" show="0x0800" value="0800"/>
  </proto>
  <proto name="ip" showname="Internet Protocol Version 4, Src: 10.48.1.195 (10.48.1.195), Dst: 132.246.11.228 (132.246.11.228)" size="20" pos="14">
    <field name="ip.version" showname="Version: 4" size="1" pos="14" show="4" value="45"/>
    <field name="ip.hdr_len" showname="Header length: 20 bytes" size="1" pos="14" show="20" value="45"/>
    <field name="ip.dsfield" showname="Differentiated Services Field: 0x00 (DSCP 0x00: Default; ECN: 0x00: Not-ECT (Not ECN-Capable Transport))" size="1" pos="15" show="0" value="00">
      <field name="ip.dsfield.dscp" showname="0000 00.. = Differentiated Services Codepoint: Default (0x00)" size="1" pos="15" show="0x00" value="0" unmaskedvalue="00"/>
      <field name="ip.dsfield.ecn" showname=".... ..00 = Explicit Congestion Notification: Not-ECT (Not ECN-Capable Transport) (0x00)" size="1" pos="15" show="0x00" value="0" unmaskedvalue="00"/>
    </field>
    <field name="ip.len" showname="Total Length: 76" size="2" pos="16" show="76" value="004c"/>
    <field name="ip.id" showname="Identification: 0x91d5 (37333)" size="2" pos="18" show="0x91d5" value="91d5"/>
    <field name="ip.flags" showname="Flags: 0x02 (Don&apos;t Fragment)" size="1" pos="20" show="0x02" value="40">
      <field name="ip.flags.rb" showname="0... .... = Reserved bit: Not set" size="1" pos="20" show="0" value="40"/>
      <field name="ip.flags.df" showname=".1.. .... = Don&apos;t fragment: Set" size="1" pos="20" show="1" value="40"/>
      <field name="ip.flags.mf" showname="..0. .... = More fragments: Not set" size="1" pos="20" show="0" value="40"/>
    </field>
    <field name="ip.frag_offset" showname="Fragment offset: 0" size="2" pos="20" show="0" value="4000"/>
    <field name="ip.ttl" showname="Time to live: 64" size="1" pos="22" show="64" value="40"/>
    <field name="ip.proto" showname="Protocol: UDP (17)" size="1" pos="23" show="17" value="11"/>
    <field name="ip.checksum" showname="Header checksum: 0x0bff [correct]" size="2" pos="24" show="0x0bff" value="0bff">
      <field name="ip.checksum_good" showname="Good: True" size="2" pos="24" show="1" value="0bff"/>
      <field name="ip.checksum_bad" showname="Bad: False" size="2" pos="24" show="0" value="0bff"/>
    </field>
    <field name="ip.src" showname="Source: 10.48.1.195 (10.48.1.195)" size="4" pos="26" show="10.48.1.195" value="0a3001c3"/>
    <field name="ip.addr" showname="Source or Destination Address: 10.48.1.195 (10.48.1.195)" hide="yes" size="4" pos="26" show="10.48.1.195" value="0a3001c3"/>
    <field name="ip.src_host" showname="Source Host: 10.48.1.195" hide="yes" size="4" pos="26" show="10.48.1.195" value="0a3001c3"/>
    <field name="ip.host" showname="Source or Destination Host: 10.48.1.195" hide="yes" size="4" pos="26" show="10.48.1.195" value="0a3001c3"/>
    <field name="ip.dst" showname="Destination: 132.246.11.228 (132.246.11.228)" size="4" pos="30" show="132.246.11.228" value="84f60be4"/>
    <field name="ip.addr" showname="Source or Destination Address: 132.246.11.228 (132.246.11.228)" hide="yes" size="4" pos="30" show="132.246.11.228" value="84f60be4"/>
    <field name="ip.dst_host" showname="Destination Host: 132.246.11.228" hide="yes" size="4" pos="30" show="132.246.11.228" value="84f60be4"/>
    <field name="ip.host" showname="Source or Destination Host: 132.246.11.228" hide="yes" size="4" pos="30" show="132.246.11.228" value="84f60be4"/>
    <field name="" show="Source GeoIP: Unknown" size="4" pos="26" value="0a3001c3"/>
    <field name="" show="Destination GeoIP: Unknown" size="4" pos="30" value="84f60be4"/>
  </proto>
  <proto name="udp" showname="User Datagram Protocol, Src Port: ntp (123), Dst Port: ntp (123)" size="8" pos="34">
    <field name="udp.srcport" showname="Source port: ntp (123)" size="2" pos="34" show="123" value="007b"/>
    <field name="udp.dstport" showname="Destination port: ntp (123)" size="2" pos="36" show="123" value="007b"/>
    <field name="udp.port" showname="Source or Destination Port: 123" hide="yes" size="2" pos="34" show="123" value="007b"/>
    <field name="udp.port" showname="Source or Destination Port: 123" hide="yes" size="2" pos="36" show="123" value="007b"/>
    <field name="udp.length" showname="Length: 56" size="2" pos="38" show="56" value="0038"/>
    <field name="udp.checksum_coverage" showname="Checksum coverage: 56" hide="yes" size="0" pos="38" show="56"/>
    <field name="udp.checksum" showname="Checksum: 0xec0b [validation disabled]" size="2" pos="40" show="0xec0b" value="ec0b">
      <field name="udp.checksum_good" showname="Good Checksum: False" size="2" pos="40" show="0" value="ec0b"/>
      <field name="udp.checksum_bad" showname="Bad Checksum: False" size="2" pos="40" show="0" value="ec0b"/>
    </field>
  </proto>
  <proto name="ntp" showname="Network Time Protocol (NTP Version 4, client)" size="48" pos="42">
    <field name="ntp.flags" showname="Flags: 0xe3" size="1" pos="42" show="0xe3" value="e3">
      <field name="ntp.flags.li" showname="11.. .... = Leap Indicator: unknown (clock unsynchronized) (3)" size="1" pos="42" show="3" value="3" unmaskedvalue="e3"/>
      <field name="ntp.flags.vn" showname="..10 0... = Version number: NTP Version 4 (4)" size="1" pos="42" show="4" value="4" unmaskedvalue="e3"/>
      <field name="ntp.flags.mode" showname=".... .011 = Mode: client (3)" size="1" pos="42" show="3" value="3" unmaskedvalue="e3"/>
    </field>
    <field name="ntp.stratum" showname="Peer Clock Stratum: unspecified or invalid (0)" size="1" pos="43" show="0" value="00"/>
    <field name="ntp.ppoll" showname="Peer Polling Interval: invalid (3)" size="1" pos="44" show="3" value="03"/>
    <field name="ntp.precision" showname="Peer Clock Precision: 0.015625 sec" size="1" pos="45" show="-6" value="fa"/>
    <field name="ntp.rootdelay" showname="Root Delay:    1.0000 sec" size="4" pos="46" show="1" value="00010000"/>
    <field name="ntp.rootdispersion" showname="Root Dispersion:    1.0000 sec" size="4" pos="50" show="1" value="00010000"/>
    <field name="ntp.refid" showname="Reference ID: NULL" size="4" pos="54" show="00:00:00:00" value="00000000"/>
    <field name="ntp.reftime" showname="Reference Timestamp: Jan  1, 1970 00:00:00.000000000 UTC" size="8" pos="58" show="Dec 31, 1969 20:30:00.000000000" value="0000000000000000"/>
    <field name="ntp.org" showname="Origin Timestamp: Jan  1, 1970 00:00:00.000000000 UTC" size="8" pos="66" show="Dec 31, 1969 20:30:00.000000000" value="0000000000000000"/>
    <field name="ntp.rec" showname="Receive Timestamp: Jan  1, 1970 00:00:00.000000000 UTC" size="8" pos="74" show="Dec 31, 1969 20:30:00.000000000" value="0000000000000000"/>
    <field name="ntp.xmt" showname="Transmit Timestamp: Jan  4, 2014 00:31:58.846634000 UTC" size="8" pos="82" show="Jan  3, 2014 21:01:58.846634000" value="d671d4fed8bd0a84"/>
  </proto>
</packet>

<packet>
  <proto name="geninfo" pos="0" showname="General information" size="90">
    <field name="num" pos="0" show="1538" showname="Number" value="602" size="90"/>
    <field name="len" pos="0" show="90" showname="Frame Length" value="5a" size="90"/>
    <field name="caplen" pos="0" show="90" showname="Captured Length" value="5a" size="90"/>
    <field name="timestamp" pos="0" show="Jan  3, 2014 21:01:58.902966000 NST" showname="Captured Time" value="1388795518.902966000" size="90"/>
  </proto>
  <proto name="frame" showname="Frame 1538: 90 bytes on wire (720 bits), 90 bytes captured (720 bits) on interface 0" size="90" pos="0">
    <field name="frame.interface_id" showname="Interface id: 0" size="0" pos="0" show="0"/>
    <field name="frame.encap_type" showname="Encapsulation type: Ethernet (1)" size="0" pos="0" show="1"/>
    <field name="frame.time" showname="Arrival Time: Jan  3, 2014 21:01:58.902966000 NST" size="0" pos="0" show="Jan  3, 2014 21:01:58.902966000"/>
    <field name="frame.offset_shift" showname="Time shift for this packet: 0.000000000 seconds" size="0" pos="0" show="0.000000000"/>
    <field name="frame.time_epoch" showname="Epoch Time: 1388795518.902966000 seconds" size="0" pos="0" show="1388795518.902966000"/>
    <field name="frame.time_delta" showname="Time delta from previous captured frame: 0.056290000 seconds" size="0" pos="0" show="0.056290000"/>
    <field name="frame.time_delta_displayed" showname="Time delta from previous displayed frame: 0.056290000 seconds" size="0" pos="0" show="0.056290000"/>
    <field name="frame.time_relative" showname="Time since reference or first frame: 539.930026000 seconds" size="0" pos="0" show="539.930026000"/>
    <field name="frame.number" showname="Frame Number: 1538" size="0" pos="0" show="1538"/>
    <field name="frame.len" showname="Frame Length: 90 bytes (720 bits)" size="0" pos="0" show="90"/>
    <field name="frame.cap_len" showname="Capture Length: 90 bytes (720 bits)" size="0" pos="0" show="90"/>
    <field name="frame.marked" showname="Frame is marked: True" size="0" pos="0" show="1"/>
    <field name="frame.ignored" showname="Frame is ignored: False" size="0" pos="0" show="0"/>
    <field name="frame.protocols" showname="Protocols in frame: eth:ip:udp:ntp" size="0" pos="0" show="eth:ip:udp:ntp"/>
    <field name="frame.coloring_rule.name" showname="Coloring Rule Name: UDP" size="0" pos="0" show="UDP"/>
    <field name="frame.coloring_rule.string" showname="Coloring Rule String: udp" size="0" pos="0" show="udp"/>
  </proto>
  <proto name="eth" showname="Ethernet II, Src: AsustekC_f6:97:3e (e0:cb:4e:f6:97:3e), Dst: Pegatron_2f:4d:48 (4c:72:b9:2f:4d:48)" size="14" pos="0">
    <field name="eth.dst" showname="Destination: Pegatron_2f:4d:48 (4c:72:b9:2f:4d:48)" size="6" pos="0" show="4c:72:b9:2f:4d:48" value="4c72b92f4d48">
      <field name="eth.addr" showname="Address: Pegatron_2f:4d:48 (4c:72:b9:2f:4d:48)" size="6" pos="0" show="4c:72:b9:2f:4d:48" value="4c72b92f4d48"/>
      <field name="eth.lg" showname=".... ..0. .... .... .... .... = LG bit: Globally unique address (factory default)" size="3" pos="0" show="0" value="0" unmaskedvalue="4c72b9"/>
      <field name="eth.ig" showname=".... ...0 .... .... .... .... = IG bit: Individual address (unicast)" size="3" pos="0" show="0" value="0" unmaskedvalue="4c72b9"/>
    </field>
    <field name="eth.src" showname="Source: AsustekC_f6:97:3e (e0:cb:4e:f6:97:3e)" size="6" pos="6" show="e0:cb:4e:f6:97:3e" value="e0cb4ef6973e">
      <field name="eth.addr" showname="Address: AsustekC_f6:97:3e (e0:cb:4e:f6:97:3e)" size="6" pos="6" show="e0:cb:4e:f6:97:3e" value="e0cb4ef6973e"/>
      <field name="eth.lg" showname=".... ..0. .... .... .... .... = LG bit: Globally unique address (factory default)" size="3" pos="6" show="0" value="0" unmaskedvalue="e0cb4e"/>
      <field name="eth.ig" showname=".... ...0 .... .... .... .... = IG bit: Individual address (unicast)" size="3" pos="6" show="0" value="0" unmaskedvalue="e0cb4e"/>
    </field>
    <field name="eth.type" showname="Type: IP (0x0800)" size="2" pos="12" show="0x0800" value="0800"/>
  </proto>
  <proto name="ip" showname="Internet Protocol Version 4, Src: 132.246.11.228 (132.246.11.228), Dst: 10.48.1.195 (10.48.1.195)" size="20" pos="14">
    <field name="ip.version" showname="Version: 4" size="1" pos="14" show="4" value="45"/>
    <field name="ip.hdr_len" showname="Header length: 20 bytes" size="1" pos="14" show="20" value="45"/>
    <field name="ip.dsfield" showname="Differentiated Services Field: 0x00 (DSCP 0x00: Default; ECN: 0x00: Not-ECT (Not ECN-Capable Transport))" size="1" pos="15" show="0" value="00">
      <field name="ip.dsfield.dscp" showname="0000 00.. = Differentiated Services Codepoint: Default (0x00)" size="1" pos="15" show="0x00" value="0" unmaskedvalue="00"/>
      <field name="ip.dsfield.ecn" showname=".... ..00 = Explicit Congestion Notification: Not-ECT (Not ECN-Capable Transport) (0x00)" size="1" pos="15" show="0x00" value="0" unmaskedvalue="00"/>
    </field>
    <field name="ip.len" showname="Total Length: 76" size="2" pos="16" show="76" value="004c"/>
    <field name="ip.id" showname="Identification: 0x0000 (0)" size="2" pos="18" show="0x0000" value="0000"/>
    <field name="ip.flags" showname="Flags: 0x02 (Don&apos;t Fragment)" size="1" pos="20" show="0x02" value="40">
      <field name="ip.flags.rb" showname="0... .... = Reserved bit: Not set" size="1" pos="20" show="0" value="40"/>
      <field name="ip.flags.df" showname=".1.. .... = Don&apos;t fragment: Set" size="1" pos="20" show="1" value="40"/>
      <field name="ip.flags.mf" showname="..0. .... = More fragments: Not set" size="1" pos="20" show="0" value="40"/>
    </field>
    <field name="ip.frag_offset" showname="Fragment offset: 0" size="2" pos="20" show="0" value="4000"/>
    <field name="ip.ttl" showname="Time to live: 53" size="1" pos="22" show="53" value="35"/>
    <field name="ip.proto" showname="Protocol: UDP (17)" size="1" pos="23" show="17" value="11"/>
    <field name="ip.checksum" showname="Header checksum: 0xa8d4 [correct]" size="2" pos="24" show="0xa8d4" value="a8d4">
      <field name="ip.checksum_good" showname="Good: True" size="2" pos="24" show="1" value="a8d4"/>
      <field name="ip.checksum_bad" showname="Bad: False" size="2" pos="24" show="0" value="a8d4"/>
    </field>
    <field name="ip.src" showname="Source: 132.246.11.228 (132.246.11.228)" size="4" pos="26" show="132.246.11.228" value="84f60be4"/>
    <field name="ip.addr" showname="Source or Destination Address: 132.246.11.228 (132.246.11.228)" hide="yes" size="4" pos="26" show="132.246.11.228" value="84f60be4"/>
    <field name="ip.src_host" showname="Source Host: 132.246.11.228" hide="yes" size="4" pos="26" show="132.246.11.228" value="84f60be4"/>
    <field name="ip.host" showname="Source or Destination Host: 132.246.11.228" hide="yes" size="4" pos="26" show="132.246.11.228" value="84f60be4"/>
    <field name="ip.dst" showname="Destination: 10.48.1.195 (10.48.1.195)" size="4" pos="30" show="10.48.1.195" value="0a3001c3"/>
    <field name="ip.addr" showname="Source or Destination Address: 10.48.1.195 (10.48.1.195)" hide="yes" size="4" pos="30" show="10.48.1.195" value="0a3001c3"/>
    <field name="ip.dst_host" showname="Destination Host: 10.48.1.195" hide="yes" size="4" pos="30" show="10.48.1.195" value="0a3001c3"/>
    <field name="ip.host" showname="Source or Destination Host: 10.48.1.195" hide="yes" size="4" pos="30" show="10.48.1.195" value="0a3001c3"/>
    <field name="" show="Source GeoIP: Unknown" size="4" pos="26" value="84f60be4"/>
    <field name="" show="Destination GeoIP: Unknown" size="4" pos="30" value="0a3001c3"/>
  </proto>
  <proto name="udp" showname="User Datagram Protocol, Src Port: ntp (123), Dst Port: ntp (123)" size="8" pos="34">
    <field name="udp.srcport" showname="Source port: ntp (123)" size="2" pos="34" show="123" value="007b"/>
    <field name="udp.dstport" showname="Destination port: ntp (123)" size="2" pos="36" show="123" value="007b"/>
    <field name="udp.port" showname="Source or Destination Port: 123" hide="yes" size="2" pos="34" show="123" value="007b"/>
    <field name="udp.port" showname="Source or Destination Port: 123" hide="yes" size="2" pos="36" show="123" value="007b"/>
    <field name="udp.length" showname="Length: 56" size="2" pos="38" show="56" value="0038"/>
    <field name="udp.checksum_coverage" showname="Checksum coverage: 56" hide="yes" size="0" pos="38" show="56"/>
    <field name="udp.checksum" showname="Checksum: 0x0f62 [validation disabled]" size="2" pos="40" show="0x0f62" value="0f62">
      <field name="udp.checksum_good" showname="Good Checksum: False" size="2" pos="40" show="0" value="0f62"/>
      <field name="udp.checksum_bad" showname="Bad Checksum: False" size="2" pos="40" show="0" value="0f62"/>
    </field>
  </proto>
  <proto name="ntp" showname="Network Time Protocol (NTP Version 4, server)" size="48" pos="42">
    <field name="ntp.flags" showname="Flags: 0x24" size="1" pos="42" show="0x24" value="24">
      <field name="ntp.flags.li" showname="00.. .... = Leap Indicator: no warning (0)" size="1" pos="42" show="0" value="0" unmaskedvalue="24"/>
      <field name="ntp.flags.vn" showname="..10 0... = Version number: NTP Version 4 (4)" size="1" pos="42" show="4" value="4" unmaskedvalue="24"/>
      <field name="ntp.flags.mode" showname=".... .100 = Mode: server (4)" size="1" pos="42" show="4" value="4" unmaskedvalue="24"/>
    </field>
    <field name="ntp.stratum" showname="Peer Clock Stratum: secondary reference (2)" size="1" pos="43" show="2" value="02"/>
    <field name="ntp.ppoll" showname="Peer Polling Interval: invalid (3)" size="1" pos="44" show="3" value="03"/>
    <field name="ntp.precision" showname="Peer Clock Precision: 0.000001 sec" size="1" pos="45" show="-20" value="ec"/>
    <field name="ntp.rootdelay" showname="Root Delay:    0.0001 sec" size="4" pos="46" show="0.0001068115234375" value="00000007"/>
    <field name="ntp.rootdispersion" showname="Root Dispersion:    0.0058 sec" size="4" pos="50" show="0.005828857421875" value="0000017e"/>
    <field name="ntp.refid" showname="Reference ID: 132.246.11.231" size="4" pos="54" show="84:f6:0b:e7" value="84f60be7"/>
    <field name="ntp.reftime" showname="Reference Timestamp: Jan  4, 2014 00:31:26.312504000 UTC" size="8" pos="58" show="Jan  3, 2014 21:01:26.312504000" value="d671d4de50004fe9"/>
    <field name="ntp.org" showname="Origin Timestamp: Jan  4, 2014 00:31:58.846634000 UTC" size="8" pos="66" show="Jan  3, 2014 21:01:58.846634000" value="d671d4fed8bd0a84"/>
    <field name="ntp.rec" showname="Receive Timestamp: Jan  4, 2014 00:31:57.980200000 UTC" size="8" pos="74" show="Jan  3, 2014 21:01:57.980200000" value="d671d4fdfaee6da1"/>
    <field name="ntp.xmt" showname="Transmit Timestamp: Jan  4, 2014 00:31:57.980224000 UTC" size="8" pos="82" show="Jan  3, 2014 21:01:57.980224000" value="d671d4fdfaf003bb"/>
  </proto>
</packet>

<packet>
  <proto name="geninfo" pos="0" showname="General information" size="90">
    <field name="num" pos="0" show="1539" showname="Number" value="603" size="90"/>
    <field name="len" pos="0" show="90" showname="Frame Length" value="5a" size="90"/>
    <field name="caplen" pos="0" show="90" showname="Captured Length" value="5a" size="90"/>
    <field name="timestamp" pos="0" show="Jan  3, 2014 21:02:00.446679000 NST" showname="Captured Time" value="1388795520.446679000" size="90"/>
  </proto>
  <proto name="frame" showname="Frame 1539: 90 bytes on wire (720 bits), 90 bytes captured (720 bits) on interface 0" size="90" pos="0">
    <field name="frame.interface_id" showname="Interface id: 0" size="0" pos="0" show="0"/>
    <field name="frame.encap_type" showname="Encapsulation type: Ethernet (1)" size="0" pos="0" show="1"/>
    <field name="frame.time" showname="Arrival Time: Jan  3, 2014 21:02:00.446679000 NST" size="0" pos="0" show="Jan  3, 2014 21:02:00.446679000"/>
    <field name="frame.offset_shift" showname="Time shift for this packet: 0.000000000 seconds" size="0" pos="0" show="0.000000000"/>
    <field name="frame.time_epoch" showname="Epoch Time: 1388795520.446679000 seconds" size="0" pos="0" show="1388795520.446679000"/>
    <field name="frame.time_delta" showname="Time delta from previous captured frame: 1.543713000 seconds" size="0" pos="0" show="1.543713000"/>
    <field name="frame.time_delta_displayed" showname="Time delta from previous displayed frame: 1.543713000 seconds" size="0" pos="0" show="1.543713000"/>
    <field name="frame.time_relative" showname="Time since reference or first frame: 541.473739000 seconds" size="0" pos="0" show="541.473739000"/>
    <field name="frame.number" showname="Frame Number: 1539" size="0" pos="0" show="1539"/>
    <field name="frame.len" showname="Frame Length: 90 bytes (720 bits)" size="0" pos="0" show="90"/>
    <field name="frame.cap_len" showname="Capture Length: 90 bytes (720 bits)" size="0" pos="0" show="90"/>
    <field name="frame.marked" showname="Frame is marked: True" size="0" pos="0" show="1"/>
    <field name="frame.ignored" showname="Frame is ignored: False" size="0" pos="0" show="0"/>
    <field name="frame.protocols" showname="Protocols in frame: eth:ip:udp:ntp" size="0" pos="0" show="eth:ip:udp:ntp"/>
    <field name="frame.coloring_rule.name" showname="Coloring Rule Name: UDP" size="0" pos="0" show="UDP"/>
    <field name="frame.coloring_rule.string" showname="Coloring Rule String: udp" size="0" pos="0" show="udp"/>
  </proto>
  <proto name="eth" showname="Ethernet II, Src: Pegatron_2f:4d:48 (4c:72:b9:2f:4d:48), Dst: AsustekC_f6:97:3e (e0:cb:4e:f6:97:3e)" size="14" pos="0">
    <field name="eth.dst" showname="Destination: AsustekC_f6:97:3e (e0:cb:4e:f6:97:3e)" size="6" pos="0" show="e0:cb:4e:f6:97:3e" value="e0cb4ef6973e">
      <field name="eth.addr" showname="Address: AsustekC_f6:97:3e (e0:cb:4e:f6:97:3e)" size="6" pos="0" show="e0:cb:4e:f6:97:3e" value="e0cb4ef6973e"/>
      <field name="eth.lg" showname=".... ..0. .... .... .... .... = LG bit: Globally unique address (factory default)" size="3" pos="0" show="0" value="0" unmaskedvalue="e0cb4e"/>
      <field name="eth.ig" showname=".... ...0 .... .... .... .... = IG bit: Individual address (unicast)" size="3" pos="0" show="0" value="0" unmaskedvalue="e0cb4e"/>
    </field>
    <field name="eth.src" showname="Source: Pegatron_2f:4d:48 (4c:72:b9:2f:4d:48)" size="6" pos="6" show="4c:72:b9:2f:4d:48" value="4c72b92f4d48">
      <field name="eth.addr" showname="Address: Pegatron_2f:4d:48 (4c:72:b9:2f:4d:48)" size="6" pos="6" show="4c:72:b9:2f:4d:48" value="4c72b92f4d48"/>
      <field name="eth.lg" showname=".... ..0. .... .... .... .... = LG bit: Globally unique address (factory default)" size="3" pos="6" show="0" value="0" unmaskedvalue="4c72b9"/>
      <field name="eth.ig" showname=".... ...0 .... .... .... .... = IG bit: Individual address (unicast)" size="3" pos="6" show="0" value="0" unmaskedvalue="4c72b9"/>
    </field>
    <field name="eth.type" showname="Type: IP (0x0800)" size="2" pos="12" show="0x0800" value="0800"/>
  </proto>
  <proto name="ip" showname="Internet Protocol Version 4, Src: 10.48.1.195 (10.48.1.195), Dst: 132.246.11.227 (132.246.11.227)" size="20" pos="14">
    <field name="ip.version" showname="Version: 4" size="1" pos="14" show="4" value="45"/>
    <field name="ip.hdr_len" showname="Header length: 20 bytes" size="1" pos="14" show="20" value="45"/>
    <field name="ip.dsfield" showname="Differentiated Services Field: 0x00 (DSCP 0x00: Default; ECN: 0x00: Not-ECT (Not ECN-Capable Transport))" size="1" pos="15" show="0" value="00">
      <field name="ip.dsfield.dscp" showname="0000 00.. = Differentiated Services Codepoint: Default (0x00)" size="1" pos="15" show="0x00" value="0" unmaskedvalue="00"/>
      <field name="ip.dsfield.ecn" showname=".... ..00 = Explicit Congestion Notification: Not-ECT (Not ECN-Capable Transport) (0x00)" size="1" pos="15" show="0x00" value="0" unmaskedvalue="00"/>
    </field>
    <field name="ip.len" showname="Total Length: 76" size="2" pos="16" show="76" value="004c"/>
    <field name="ip.id" showname="Identification: 0xc510 (50448)" size="2" pos="18" show="0xc510" value="c510"/>
    <field name="ip.flags" showname="Flags: 0x02 (Don&apos;t Fragment)" size="1" pos="20" show="0x02" value="40">
      <field name="ip.flags.rb" showname="0... .... = Reserved bit: Not set" size="1" pos="20" show="0" value="40"/>
      <field name="ip.flags.df" showname=".1.. .... = Don&apos;t fragment: Set" size="1" pos="20" show="1" value="40"/>
      <field name="ip.flags.mf" showname="..0. .... = More fragments: Not set" size="1" pos="20" show="0" value="40"/>
    </field>
    <field name="ip.frag_offset" showname="Fragment offset: 0" size="2" pos="20" show="0" value="4000"/>
    <field name="ip.ttl" showname="Time to live: 64" size="1" pos="22" show="64" value="40"/>
    <field name="ip.proto" showname="Protocol: UDP (17)" size="1" pos="23" show="17" value="11"/>
    <field name="ip.checksum" showname="Header checksum: 0xd8c4 [correct]" size="2" pos="24" show="0xd8c4" value="d8c4">
      <field name="ip.checksum_good" showname="Good: True" size="2" pos="24" show="1" value="d8c4"/>
      <field name="ip.checksum_bad" showname="Bad: False" size="2" pos="24" show="0" value="d8c4"/>
    </field>
    <field name="ip.src" showname="Source: 10.48.1.195 (10.48.1.195)" size="4" pos="26" show="10.48.1.195" value="0a3001c3"/>
    <field name="ip.addr" showname="Source or Destination Address: 10.48.1.195 (10.48.1.195)" hide="yes" size="4" pos="26" show="10.48.1.195" value="0a3001c3"/>
    <field name="ip.src_host" showname="Source Host: 10.48.1.195" hide="yes" size="4" pos="26" show="10.48.1.195" value="0a3001c3"/>
    <field name="ip.host" showname="Source or Destination Host: 10.48.1.195" hide="yes" size="4" pos="26" show="10.48.1.195" value="0a3001c3"/>
    <field name="ip.dst" showname="Destination: 132.246.11.227 (132.246.11.227)" size="4" pos="30" show="132.246.11.227" value="84f60be3"/>
    <field name="ip.addr" showname="Source or Destination Address: 132.246.11.227 (132.246.11.227)" hide="yes" size="4" pos="30" show="132.246.11.227" value="84f60be3"/>
    <field name="ip.dst_host" showname="Destination Host: 132.246.11.227" hide="yes" size="4" pos="30" show="132.246.11.227" value="84f60be3"/>
    <field name="ip.host" showname="Source or Destination Host: 132.246.11.227" hide="yes" size="4" pos="30" show="132.246.11.227" value="84f60be3"/>
    <field name="" show="Source GeoIP: Unknown" size="4" pos="26" value="0a3001c3"/>
    <field name="" show="Destination GeoIP: Unknown" size="4" pos="30" value="84f60be3"/>
  </proto>
  <proto name="udp" showname="User Datagram Protocol, Src Port: ntp (123), Dst Port: ntp (123)" size="8" pos="34">
    <field name="udp.srcport" showname="Source port: ntp (123)" size="2" pos="34" show="123" value="007b"/>
    <field name="udp.dstport" showname="Destination port: ntp (123)" size="2" pos="36" show="123" value="007b"/>
    <field name="udp.port" showname="Source or Destination Port: 123" hide="yes" size="2" pos="34" show="123" value="007b"/>
    <field name="udp.port" showname="Source or Destination Port: 123" hide="yes" size="2" pos="36" show="123" value="007b"/>
    <field name="udp.length" showname="Length: 56" size="2" pos="38" show="56" value="0038"/>
    <field name="udp.checksum_coverage" showname="Checksum coverage: 56" hide="yes" size="0" pos="38" show="56"/>
    <field name="udp.checksum" showname="Checksum: 0xa599 [validation disabled]" size="2" pos="40" show="0xa599" value="a599">
      <field name="udp.checksum_good" showname="Good Checksum: False" size="2" pos="40" show="0" value="a599"/>
      <field name="udp.checksum_bad" showname="Bad Checksum: False" size="2" pos="40" show="0" value="a599"/>
    </field>
  </proto>
  <proto name="ntp" showname="Network Time Protocol (NTP Version 4, client)" size="48" pos="42">
    <field name="ntp.flags" showname="Flags: 0xe3" size="1" pos="42" show="0xe3" value="e3">
      <field name="ntp.flags.li" showname="11.. .... = Leap Indicator: unknown (clock unsynchronized) (3)" size="1" pos="42" show="3" value="3" unmaskedvalue="e3"/>
      <field name="ntp.flags.vn" showname="..10 0... = Version number: NTP Version 4 (4)" size="1" pos="42" show="4" value="4" unmaskedvalue="e3"/>
      <field name="ntp.flags.mode" showname=".... .011 = Mode: client (3)" size="1" pos="42" show="3" value="3" unmaskedvalue="e3"/>
    </field>
    <field name="ntp.stratum" showname="Peer Clock Stratum: unspecified or invalid (0)" size="1" pos="43" show="0" value="00"/>
    <field name="ntp.ppoll" showname="Peer Polling Interval: invalid (3)" size="1" pos="44" show="3" value="03"/>
    <field name="ntp.precision" showname="Peer Clock Precision: 0.015625 sec" size="1" pos="45" show="-6" value="fa"/>
    <field name="ntp.rootdelay" showname="Root Delay:    1.0000 sec" size="4" pos="46" show="1" value="00010000"/>
    <field name="ntp.rootdispersion" showname="Root Dispersion:    1.0000 sec" size="4" pos="50" show="1" value="00010000"/>
    <field name="ntp.refid" showname="Reference ID: NULL" size="4" pos="54" show="00:00:00:00" value="00000000"/>
    <field name="ntp.reftime" showname="Reference Timestamp: Jan  1, 1970 00:00:00.000000000 UTC" size="8" pos="58" show="Dec 31, 1969 20:30:00.000000000" value="0000000000000000"/>
    <field name="ntp.org" showname="Origin Timestamp: Jan  1, 1970 00:00:00.000000000 UTC" size="8" pos="66" show="Dec 31, 1969 20:30:00.000000000" value="0000000000000000"/>
    <field name="ntp.rec" showname="Receive Timestamp: Jan  1, 1970 00:00:00.000000000 UTC" size="8" pos="74" show="Dec 31, 1969 20:30:00.000000000" value="0000000000000000"/>
    <field name="ntp.xmt" showname="Transmit Timestamp: Jan  4, 2014 00:32:00.446635000 UTC" size="8" pos="82" show="Jan  3, 2014 21:02:00.446635000" value="d671d5007256b75c"/>
  </proto>
</packet>

<packet>
  <proto name="geninfo" pos="0" showname="General information" size="90">
    <field name="num" pos="0" show="1540" showname="Number" value="604" size="90"/>
    <field name="len" pos="0" show="90" showname="Frame Length" value="5a" size="90"/>
    <field name="caplen" pos="0" show="90" showname="Captured Length" value="5a" size="90"/>
    <field name="timestamp" pos="0" show="Jan  3, 2014 21:02:00.646678000 NST" showname="Captured Time" value="1388795520.646678000" size="90"/>
  </proto>
  <proto name="frame" showname="Frame 1540: 90 bytes on wire (720 bits), 90 bytes captured (720 bits) on interface 0" size="90" pos="0">
    <field name="frame.interface_id" showname="Interface id: 0" size="0" pos="0" show="0"/>
    <field name="frame.encap_type" showname="Encapsulation type: Ethernet (1)" size="0" pos="0" show="1"/>
    <field name="frame.time" showname="Arrival Time: Jan  3, 2014 21:02:00.646678000 NST" size="0" pos="0" show="Jan  3, 2014 21:02:00.646678000"/>
    <field name="frame.offset_shift" showname="Time shift for this packet: 0.000000000 seconds" size="0" pos="0" show="0.000000000"/>
    <field name="frame.time_epoch" showname="Epoch Time: 1388795520.646678000 seconds" size="0" pos="0" show="1388795520.646678000"/>
    <field name="frame.time_delta" showname="Time delta from previous captured frame: 0.199999000 seconds" size="0" pos="0" show="0.199999000"/>
    <field name="frame.time_delta_displayed" showname="Time delta from previous displayed frame: 0.199999000 seconds" size="0" pos="0" show="0.199999000"/>
    <field name="frame.time_relative" showname="Time since reference or first frame: 541.673738000 seconds" size="0" pos="0" show="541.673738000"/>
    <field name="frame.number" showname="Frame Number: 1540" size="0" pos="0" show="1540"/>
    <field name="frame.len" showname="Frame Length: 90 bytes (720 bits)" size="0" pos="0" show="90"/>
    <field name="frame.cap_len" showname="Capture Length: 90 bytes (720 bits)" size="0" pos="0" show="90"/>
    <field name="frame.marked" showname="Frame is marked: True" size="0" pos="0" show="1"/>
    <field name="frame.ignored" showname="Frame is ignored: False" size="0" pos="0" show="0"/>
    <field name="frame.protocols" showname="Protocols in frame: eth:ip:udp:ntp" size="0" pos="0" show="eth:ip:udp:ntp"/>
    <field name="frame.coloring_rule.name" showname="Coloring Rule Name: UDP" size="0" pos="0" show="UDP"/>
    <field name="frame.coloring_rule.string" showname="Coloring Rule String: udp" size="0" pos="0" show="udp"/>
  </proto>
  <proto name="eth" showname="Ethernet II, Src: Pegatron_2f:4d:48 (4c:72:b9:2f:4d:48), Dst: AsustekC_f6:97:3e (e0:cb:4e:f6:97:3e)" size="14" pos="0">
    <field name="eth.dst" showname="Destination: AsustekC_f6:97:3e (e0:cb:4e:f6:97:3e)" size="6" pos="0" show="e0:cb:4e:f6:97:3e" value="e0cb4ef6973e">
      <field name="eth.addr" showname="Address: AsustekC_f6:97:3e (e0:cb:4e:f6:97:3e)" size="6" pos="0" show="e0:cb:4e:f6:97:3e" value="e0cb4ef6973e"/>
      <field name="eth.lg" showname=".... ..0. .... .... .... .... = LG bit: Globally unique address (factory default)" size="3" pos="0" show="0" value="0" unmaskedvalue="e0cb4e"/>
      <field name="eth.ig" showname=".... ...0 .... .... .... .... = IG bit: Individual address (unicast)" size="3" pos="0" show="0" value="0" unmaskedvalue="e0cb4e"/>
    </field>
    <field name="eth.src" showname="Source: Pegatron_2f:4d:48 (4c:72:b9:2f:4d:48)" size="6" pos="6" show="4c:72:b9:2f:4d:48" value="4c72b92f4d48">
      <field name="eth.addr" showname="Address: Pegatron_2f:4d:48 (4c:72:b9:2f:4d:48)" size="6" pos="6" show="4c:72:b9:2f:4d:48" value="4c72b92f4d48"/>
      <field name="eth.lg" showname=".... ..0. .... .... .... .... = LG bit: Globally unique address (factory default)" size="3" pos="6" show="0" value="0" unmaskedvalue="4c72b9"/>
      <field name="eth.ig" showname=".... ...0 .... .... .... .... = IG bit: Individual address (unicast)" size="3" pos="6" show="0" value="0" unmaskedvalue="4c72b9"/>
    </field>
    <field name="eth.type" showname="Type: IP (0x0800)" size="2" pos="12" show="0x0800" value="0800"/>
  </proto>
  <proto name="ip" showname="Internet Protocol Version 4, Src: 10.48.1.195 (10.48.1.195), Dst: 132.246.11.229 (132.246.11.229)" size="20" pos="14">
    <field name="ip.version" showname="Version: 4" size="1" pos="14" show="4" value="45"/>
    <field name="ip.hdr_len" showname="Header length: 20 bytes" size="1" pos="14" show="20" value="45"/>
    <field name="ip.dsfield" showname="Differentiated Services Field: 0x00 (DSCP 0x00: Default; ECN: 0x00: Not-ECT (Not ECN-Capable Transport))" size="1" pos="15" show="0" value="00">
      <field name="ip.dsfield.dscp" showname="0000 00.. = Differentiated Services Codepoint: Default (0x00)" size="1" pos="15" show="0x00" value="0" unmaskedvalue="00"/>
      <field name="ip.dsfield.ecn" showname=".... ..00 = Explicit Congestion Notification: Not-ECT (Not ECN-Capable Transport) (0x00)" size="1" pos="15" show="0x00" value="0" unmaskedvalue="00"/>
    </field>
    <field name="ip.len" showname="Total Length: 76" size="2" pos="16" show="76" value="004c"/>
    <field name="ip.id" showname="Identification: 0x524f (21071)" size="2" pos="18" show="0x524f" value="524f"/>
    <field name="ip.flags" showname="Flags: 0x02 (Don&apos;t Fragment)" size="1" pos="20" show="0x02" value="40">
      <field name="ip.flags.rb" showname="0... .... = Reserved bit: Not set" size="1" pos="20" show="0" value="40"/>
      <field name="ip.flags.df" showname=".1.. .... = Don&apos;t fragment: Set" size="1" pos="20" show="1" value="40"/>
      <field name="ip.flags.mf" showname="..0. .... = More fragments: Not set" size="1" pos="20" show="0" value="40"/>
    </field>
    <field name="ip.frag_offset" showname="Fragment offset: 0" size="2" pos="20" show="0" value="4000"/>
    <field name="ip.ttl" showname="Time to live: 64" size="1" pos="22" show="64" value="40"/>
    <field name="ip.proto" showname="Protocol: UDP (17)" size="1" pos="23" show="17" value="11"/>
    <field name="ip.checksum" showname="Header checksum: 0x4b84 [correct]" size="2" pos="24" show="0x4b84" value="4b84">
      <field name="ip.checksum_good" showname="Good: True" size="2" pos="24" show="1" value="4b84"/>
      <field name="ip.checksum_bad" showname="Bad: False" size="2" pos="24" show="0" value="4b84"/>
    </field>
    <field name="ip.src" showname="Source: 10.48.1.195 (10.48.1.195)" size="4" pos="26" show="10.48.1.195" value="0a3001c3"/>
    <field name="ip.addr" showname="Source or Destination Address: 10.48.1.195 (10.48.1.195)" hide="yes" size="4" pos="26" show="10.48.1.195" value="0a3001c3"/>
    <field name="ip.src_host" showname="Source Host: 10.48.1.195" hide="yes" size="4" pos="26" show="10.48.1.195" value="0a3001c3"/>
    <field name="ip.host" showname="Source or Destination Host: 10.48.1.195" hide="yes" size="4" pos="26" show="10.48.1.195" value="0a3001c3"/>
    <field name="ip.dst" showname="Destination: 132.246.11.229 (132.246.11.229)" size="4" pos="30" show="132.246.11.229" value="84f60be5"/>
    <field name="ip.addr" showname="Source or Destination Address: 132.246.11.229 (132.246.11.229)" hide="yes" size="4" pos="30" show="132.246.11.229" value="84f60be5"/>
    <field name="ip.dst_host" showname="Destination Host: 132.246.11.229" hide="yes" size="4" pos="30" show="132.246.11.229" value="84f60be5"/>
    <field name="ip.host" showname="Source or Destination Host: 132.246.11.229" hide="yes" size="4" pos="30" show="132.246.11.229" value="84f60be5"/>
    <field name="" show="Source GeoIP: Unknown" size="4" pos="26" value="0a3001c3"/>
    <field name="" show="Destination GeoIP: Unknown" size="4" pos="30" value="84f60be5"/>
  </proto>
  <proto name="udp" showname="User Datagram Protocol, Src Port: ntp (123), Dst Port: ntp (123)" size="8" pos="34">
    <field name="udp.srcport" showname="Source port: ntp (123)" size="2" pos="34" show="123" value="007b"/>
    <field name="udp.dstport" showname="Destination port: ntp (123)" size="2" pos="36" show="123" value="007b"/>
    <field name="udp.port" showname="Source or Destination Port: 123" hide="yes" size="2" pos="34" show="123" value="007b"/>
    <field name="udp.port" showname="Source or Destination Port: 123" hide="yes" size="2" pos="36" show="123" value="007b"/>
    <field name="udp.length" showname="Length: 56" size="2" pos="38" show="56" value="0038"/>
    <field name="udp.checksum_coverage" showname="Checksum coverage: 56" hide="yes" size="0" pos="38" show="56"/>
    <field name="udp.checksum" showname="Checksum: 0x4ee9 [validation disabled]" size="2" pos="40" show="0x4ee9" value="4ee9">
      <field name="udp.checksum_good" showname="Good Checksum: False" size="2" pos="40" show="0" value="4ee9"/>
      <field name="udp.checksum_bad" showname="Bad Checksum: False" size="2" pos="40" show="0" value="4ee9"/>
    </field>
  </proto>
  <proto name="ntp" showname="Network Time Protocol (NTP Version 4, client)" size="48" pos="42">
    <field name="ntp.flags" showname="Flags: 0xe3" size="1" pos="42" show="0xe3" value="e3">
      <field name="ntp.flags.li" showname="11.. .... = Leap Indicator: unknown (clock unsynchronized) (3)" size="1" pos="42" show="3" value="3" unmaskedvalue="e3"/>
      <field name="ntp.flags.vn" showname="..10 0... = Version number: NTP Version 4 (4)" size="1" pos="42" show="4" value="4" unmaskedvalue="e3"/>
      <field name="ntp.flags.mode" showname=".... .011 = Mode: client (3)" size="1" pos="42" show="3" value="3" unmaskedvalue="e3"/>
    </field>
    <field name="ntp.stratum" showname="Peer Clock Stratum: unspecified or invalid (0)" size="1" pos="43" show="0" value="00"/>
    <field name="ntp.ppoll" showname="Peer Polling Interval: invalid (3)" size="1" pos="44" show="3" value="03"/>
    <field name="ntp.precision" showname="Peer Clock Precision: 0.015625 sec" size="1" pos="45" show="-6" value="fa"/>
    <field name="ntp.rootdelay" showname="Root Delay:    1.0000 sec" size="4" pos="46" show="1" value="00010000"/>
    <field name="ntp.rootdispersion" showname="Root Dispersion:    1.0000 sec" size="4" pos="50" show="1" value="00010000"/>
    <field name="ntp.refid" showname="Reference ID: NULL" size="4" pos="54" show="00:00:00:00" value="00000000"/>
    <field name="ntp.reftime" showname="Reference Timestamp: Jan  1, 1970 00:00:00.000000000 UTC" size="8" pos="58" show="Dec 31, 1969 20:30:00.000000000" value="0000000000000000"/>
    <field name="ntp.org" showname="Origin Timestamp: Jan  1, 1970 00:00:00.000000000 UTC" size="8" pos="66" show="Dec 31, 1969 20:30:00.000000000" value="0000000000000000"/>
    <field name="ntp.rec" showname="Receive Timestamp: Jan  1, 1970 00:00:00.000000000 UTC" size="8" pos="74" show="Dec 31, 1969 20:30:00.000000000" value="0000000000000000"/>
    <field name="ntp.xmt" showname="Transmit Timestamp: Jan  4, 2014 00:32:00.646634000 UTC" size="8" pos="82" show="Jan  3, 2014 21:02:00.646634000" value="d671d500a589dad7"/>
  </proto>
</packet>

<packet>
  <proto name="geninfo" pos="0" showname="General information" size="90">
    <field name="num" pos="0" show="1541" showname="Number" value="605" size="90"/>
    <field name="len" pos="0" show="90" showname="Frame Length" value="5a" size="90"/>
    <field name="caplen" pos="0" show="90" showname="Captured Length" value="5a" size="90"/>
    <field name="timestamp" pos="0" show="Jan  3, 2014 21:02:00.703546000 NST" showname="Captured Time" value="1388795520.703546000" size="90"/>
  </proto>
  <proto name="frame" showname="Frame 1541: 90 bytes on wire (720 bits), 90 bytes captured (720 bits) on interface 0" size="90" pos="0">
    <field name="frame.interface_id" showname="Interface id: 0" size="0" pos="0" show="0"/>
    <field name="frame.encap_type" showname="Encapsulation type: Ethernet (1)" size="0" pos="0" show="1"/>
    <field name="frame.time" showname="Arrival Time: Jan  3, 2014 21:02:00.703546000 NST" size="0" pos="0" show="Jan  3, 2014 21:02:00.703546000"/>
    <field name="frame.offset_shift" showname="Time shift for this packet: 0.000000000 seconds" size="0" pos="0" show="0.000000000"/>
    <field name="frame.time_epoch" showname="Epoch Time: 1388795520.703546000 seconds" size="0" pos="0" show="1388795520.703546000"/>
    <field name="frame.time_delta" showname="Time delta from previous captured frame: 0.056868000 seconds" size="0" pos="0" show="0.056868000"/>
    <field name="frame.time_delta_displayed" showname="Time delta from previous displayed frame: 0.056868000 seconds" size="0" pos="0" show="0.056868000"/>
    <field name="frame.time_relative" showname="Time since reference or first frame: 541.730606000 seconds" size="0" pos="0" show="541.730606000"/>
    <field name="frame.number" showname="Frame Number: 1541" size="0" pos="0" show="1541"/>
    <field name="frame.len" showname="Frame Length: 90 bytes (720 bits)" size="0" pos="0" show="90"/>
    <field name="frame.cap_len" showname="Capture Length: 90 bytes (720 bits)" size="0" pos="0" show="90"/>
    <field name="frame.marked" showname="Frame is marked: True" size="0" pos="0" show="1"/>
    <field name="frame.ignored" showname="Frame is ignored: False" size="0" pos="0" show="0"/>
    <field name="frame.protocols" showname="Protocols in frame: eth:ip:udp:ntp" size="0" pos="0" show="eth:ip:udp:ntp"/>
    <field name="frame.coloring_rule.name" showname="Coloring Rule Name: UDP" size="0" pos="0" show="UDP"/>
    <field name="frame.coloring_rule.string" showname="Coloring Rule String: udp" size="0" pos="0" show="udp"/>
  </proto>
  <proto name="eth" showname="Ethernet II, Src: AsustekC_f6:97:3e (e0:cb:4e:f6:97:3e), Dst: Pegatron_2f:4d:48 (4c:72:b9:2f:4d:48)" size="14" pos="0">
    <field name="eth.dst" showname="Destination: Pegatron_2f:4d:48 (4c:72:b9:2f:4d:48)" size="6" pos="0" show="4c:72:b9:2f:4d:48" value="4c72b92f4d48">
      <field name="eth.addr" showname="Address: Pegatron_2f:4d:48 (4c:72:b9:2f:4d:48)" size="6" pos="0" show="4c:72:b9:2f:4d:48" value="4c72b92f4d48"/>
      <field name="eth.lg" showname=".... ..0. .... .... .... .... = LG bit: Globally unique address (factory default)" size="3" pos="0" show="0" value="0" unmaskedvalue="4c72b9"/>
      <field name="eth.ig" showname=".... ...0 .... .... .... .... = IG bit: Individual address (unicast)" size="3" pos="0" show="0" value="0" unmaskedvalue="4c72b9"/>
    </field>
    <field name="eth.src" showname="Source: AsustekC_f6:97:3e (e0:cb:4e:f6:97:3e)" size="6" pos="6" show="e0:cb:4e:f6:97:3e" value="e0cb4ef6973e">
      <field name="eth.addr" showname="Address: AsustekC_f6:97:3e (e0:cb:4e:f6:97:3e)" size="6" pos="6" show="e0:cb:4e:f6:97:3e" value="e0cb4ef6973e"/>
      <field name="eth.lg" showname=".... ..0. .... .... .... .... = LG bit: Globally unique address (factory default)" size="3" pos="6" show="0" value="0" unmaskedvalue="e0cb4e"/>
      <field name="eth.ig" showname=".... ...0 .... .... .... .... = IG bit: Individual address (unicast)" size="3" pos="6" show="0" value="0" unmaskedvalue="e0cb4e"/>
    </field>
    <field name="eth.type" showname="Type: IP (0x0800)" size="2" pos="12" show="0x0800" value="0800"/>
  </proto>
  <proto name="ip" showname="Internet Protocol Version 4, Src: 132.246.11.229 (132.246.11.229), Dst: 10.48.1.195 (10.48.1.195)" size="20" pos="14">
    <field name="ip.version" showname="Version: 4" size="1" pos="14" show="4" value="45"/>
    <field name="ip.hdr_len" showname="Header length: 20 bytes" size="1" pos="14" show="20" value="45"/>
    <field name="ip.dsfield" showname="Differentiated Services Field: 0x00 (DSCP 0x00: Default; ECN: 0x00: Not-ECT (Not ECN-Capable Transport))" size="1" pos="15" show="0" value="00">
      <field name="ip.dsfield.dscp" showname="0000 00.. = Differentiated Services Codepoint: Default (0x00)" size="1" pos="15" show="0x00" value="0" unmaskedvalue="00"/>
      <field name="ip.dsfield.ecn" showname=".... ..00 = Explicit Congestion Notification: Not-ECT (Not ECN-Capable Transport) (0x00)" size="1" pos="15" show="0x00" value="0" unmaskedvalue="00"/>
    </field>
    <field name="ip.len" showname="Total Length: 76" size="2" pos="16" show="76" value="004c"/>
    <field name="ip.id" showname="Identification: 0x0000 (0)" size="2" pos="18" show="0x0000" value="0000"/>
    <field name="ip.flags" showname="Flags: 0x02 (Don&apos;t Fragment)" size="1" pos="20" show="0x02" value="40">
      <field name="ip.flags.rb" showname="0... .... = Reserved bit: Not set" size="1" pos="20" show="0" value="40"/>
      <field name="ip.flags.df" showname=".1.. .... = Don&apos;t fragment: Set" size="1" pos="20" show="1" value="40"/>
      <field name="ip.flags.mf" showname="..0. .... = More fragments: Not set" size="1" pos="20" show="0" value="40"/>
    </field>
    <field name="ip.frag_offset" showname="Fragment offset: 0" size="2" pos="20" show="0" value="4000"/>
    <field name="ip.ttl" showname="Time to live: 53" size="1" pos="22" show="53" value="35"/>
    <field name="ip.proto" showname="Protocol: UDP (17)" size="1" pos="23" show="17" value="11"/>
    <field name="ip.checksum" showname="Header checksum: 0xa8d3 [correct]" size="2" pos="24" show="0xa8d3" value="a8d3">
      <field name="ip.checksum_good" showname="Good: True" size="2" pos="24" show="1" value="a8d3"/>
      <field name="ip.checksum_bad" showname="Bad: False" size="2" pos="24" show="0" value="a8d3"/>
    </field>
    <field name="ip.src" showname="Source: 132.246.11.229 (132.246.11.229)" size="4" pos="26" show="132.246.11.229" value="84f60be5"/>
    <field name="ip.addr" showname="Source or Destination Address: 132.246.11.229 (132.246.11.229)" hide="yes" size="4" pos="26" show="132.246.11.229" value="84f60be5"/>
    <field name="ip.src_host" showname="Source Host: 132.246.11.229" hide="yes" size="4" pos="26" show="132.246.11.229" value="84f60be5"/>
    <field name="ip.host" showname="Source or Destination Host: 132.246.11.229" hide="yes" size="4" pos="26" show="132.246.11.229" value="84f60be5"/>
    <field name="ip.dst" showname="Destination: 10.48.1.195 (10.48.1.195)" size="4" pos="30" show="10.48.1.195" value="0a3001c3"/>
    <field name="ip.addr" showname="Source or Destination Address: 10.48.1.195 (10.48.1.195)" hide="yes" size="4" pos="30" show="10.48.1.195" value="0a3001c3"/>
    <field name="ip.dst_host" showname="Destination Host: 10.48.1.195" hide="yes" size="4" pos="30" show="10.48.1.195" value="0a3001c3"/>
    <field name="ip.host" showname="Source or Destination Host: 10.48.1.195" hide="yes" size="4" pos="30" show="10.48.1.195" value="0a3001c3"/>
    <field name="" show="Source GeoIP: Unknown" size="4" pos="26" value="84f60be5"/>
    <field name="" show="Destination GeoIP: Unknown" size="4" pos="30" value="0a3001c3"/>
  </proto>
  <proto name="udp" showname="User Datagram Protocol, Src Port: ntp (123), Dst Port: ntp (123)" size="8" pos="34">
    <field name="udp.srcport" showname="Source port: ntp (123)" size="2" pos="34" show="123" value="007b"/>
    <field name="udp.dstport" showname="Destination port: ntp (123)" size="2" pos="36" show="123" value="007b"/>
    <field name="udp.port" showname="Source or Destination Port: 123" hide="yes" size="2" pos="34" show="123" value="007b"/>
    <field name="udp.port" showname="Source or Destination Port: 123" hide="yes" size="2" pos="36" show="123" value="007b"/>
    <field name="udp.length" showname="Length: 56" size="2" pos="38" show="56" value="0038"/>
    <field name="udp.checksum_coverage" showname="Checksum coverage: 56" hide="yes" size="0" pos="38" show="56"/>
    <field name="udp.checksum" showname="Checksum: 0x4e5f [validation disabled]" size="2" pos="40" show="0x4e5f" value="4e5f">
      <field name="udp.checksum_good" showname="Good Checksum: False" size="2" pos="40" show="0" value="4e5f"/>
      <field name="udp.checksum_bad" showname="Bad Checksum: False" size="2" pos="40" show="0" value="4e5f"/>
    </field>
  </proto>
  <proto name="ntp" showname="Network Time Protocol (NTP Version 4, server)" size="48" pos="42">
    <field name="ntp.flags" showname="Flags: 0x24" size="1" pos="42" show="0x24" value="24">
      <field name="ntp.flags.li" showname="00.. .... = Leap Indicator: no warning (0)" size="1" pos="42" show="0" value="0" unmaskedvalue="24"/>
      <field name="ntp.flags.vn" showname="..10 0... = Version number: NTP Version 4 (4)" size="1" pos="42" show="4" value="4" unmaskedvalue="24"/>
      <field name="ntp.flags.mode" showname=".... .100 = Mode: server (4)" size="1" pos="42" show="4" value="4" unmaskedvalue="24"/>
    </field>
    <field name="ntp.stratum" showname="Peer Clock Stratum: secondary reference (2)" size="1" pos="43" show="2" value="02"/>
    <field name="ntp.ppoll" showname="Peer Polling Interval: invalid (3)" size="1" pos="44" show="3" value="03"/>
    <field name="ntp.precision" showname="Peer Clock Precision: 0.000001 sec" size="1" pos="45" show="-20" value="ec"/>
    <field name="ntp.rootdelay" showname="Root Delay:    0.0001 sec" size="4" pos="46" show="0.0001373291015625" value="00000009"/>
    <field name="ntp.rootdispersion" showname="Root Dispersion:    0.0066 sec" size="4" pos="50" show="0.0065765380859375" value="000001af"/>
    <field name="ntp.refid" showname="Reference ID: 132.246.11.233" size="4" pos="54" show="84:f6:0b:e9" value="84f60be9"/>
    <field name="ntp.reftime" showname="Reference Timestamp: Jan  4, 2014 00:29:38.525288000 UTC" size="8" pos="58" show="Jan  3, 2014 20:59:38.525288000" value="d671d47286795043"/>
    <field name="ntp.org" showname="Origin Timestamp: Jan  4, 2014 00:32:00.646634000 UTC" size="8" pos="66" show="Jan  3, 2014 21:02:00.646634000" value="d671d500a589dad7"/>
    <field name="ntp.rec" showname="Receive Timestamp: Jan  4, 2014 00:31:59.782369000 UTC" size="8" pos="74" show="Jan  3, 2014 21:01:59.782369000" value="d671d4ffc84964a1"/>
    <field name="ntp.xmt" showname="Transmit Timestamp: Jan  4, 2014 00:31:59.782400000 UTC" size="8" pos="82" show="Jan  3, 2014 21:01:59.782400000" value="d671d4ffc84b5f45"/>
  </proto>
</packet>

<packet>
  <proto name="geninfo" pos="0" showname="General information" size="90">
    <field name="num" pos="0" show="1542" showname="Number" value="606" size="90"/>
    <field name="len" pos="0" show="90" showname="Frame Length" value="5a" size="90"/>
    <field name="caplen" pos="0" show="90" showname="Captured Length" value="5a" size="90"/>
    <field name="timestamp" pos="0" show="Jan  3, 2014 21:02:00.846680000 NST" showname="Captured Time" value="1388795520.846680000" size="90"/>
  </proto>
  <proto name="frame" showname="Frame 1542: 90 bytes on wire (720 bits), 90 bytes captured (720 bits) on interface 0" size="90" pos="0">
    <field name="frame.interface_id" showname="Interface id: 0" size="0" pos="0" show="0"/>
    <field name="frame.encap_type" showname="Encapsulation type: Ethernet (1)" size="0" pos="0" show="1"/>
    <field name="frame.time" showname="Arrival Time: Jan  3, 2014 21:02:00.846680000 NST" size="0" pos="0" show="Jan  3, 2014 21:02:00.846680000"/>
    <field name="frame.offset_shift" showname="Time shift for this packet: 0.000000000 seconds" size="0" pos="0" show="0.000000000"/>
    <field name="frame.time_epoch" showname="Epoch Time: 1388795520.846680000 seconds" size="0" pos="0" show="1388795520.846680000"/>
    <field name="frame.time_delta" showname="Time delta from previous captured frame: 0.143134000 seconds" size="0" pos="0" show="0.143134000"/>
    <field name="frame.time_delta_displayed" showname="Time delta from previous displayed frame: 0.143134000 seconds" size="0" pos="0" show="0.143134000"/>
    <field name="frame.time_relative" showname="Time since reference or first frame: 541.873740000 seconds" size="0" pos="0" show="541.873740000"/>
    <field name="frame.number" showname="Frame Number: 1542" size="0" pos="0" show="1542"/>
    <field name="frame.len" showname="Frame Length: 90 bytes (720 bits)" size="0" pos="0" show="90"/>
    <field name="frame.cap_len" showname="Capture Length: 90 bytes (720 bits)" size="0" pos="0" show="90"/>
    <field name="frame.marked" showname="Frame is marked: True" size="0" pos="0" show="1"/>
    <field name="frame.ignored" showname="Frame is ignored: False" size="0" pos="0" show="0"/>
    <field name="frame.protocols" showname="Protocols in frame: eth:ip:udp:ntp" size="0" pos="0" show="eth:ip:udp:ntp"/>
    <field name="frame.coloring_rule.name" showname="Coloring Rule Name: UDP" size="0" pos="0" show="UDP"/>
    <field name="frame.coloring_rule.string" showname="Coloring Rule String: udp" size="0" pos="0" show="udp"/>
  </proto>
  <proto name="eth" showname="Ethernet II, Src: Pegatron_2f:4d:48 (4c:72:b9:2f:4d:48), Dst: AsustekC_f6:97:3e (e0:cb:4e:f6:97:3e)" size="14" pos="0">
    <field name="eth.dst" showname="Destination: AsustekC_f6:97:3e (e0:cb:4e:f6:97:3e)" size="6" pos="0" show="e0:cb:4e:f6:97:3e" value="e0cb4ef6973e">
      <field name="eth.addr" showname="Address: AsustekC_f6:97:3e (e0:cb:4e:f6:97:3e)" size="6" pos="0" show="e0:cb:4e:f6:97:3e" value="e0cb4ef6973e"/>
      <field name="eth.lg" showname=".... ..0. .... .... .... .... = LG bit: Globally unique address (factory default)" size="3" pos="0" show="0" value="0" unmaskedvalue="e0cb4e"/>
      <field name="eth.ig" showname=".... ...0 .... .... .... .... = IG bit: Individual address (unicast)" size="3" pos="0" show="0" value="0" unmaskedvalue="e0cb4e"/>
    </field>
    <field name="eth.src" showname="Source: Pegatron_2f:4d:48 (4c:72:b9:2f:4d:48)" size="6" pos="6" show="4c:72:b9:2f:4d:48" value="4c72b92f4d48">
      <field name="eth.addr" showname="Address: Pegatron_2f:4d:48 (4c:72:b9:2f:4d:48)" size="6" pos="6" show="4c:72:b9:2f:4d:48" value="4c72b92f4d48"/>
      <field name="eth.lg" showname=".... ..0. .... .... .... .... = LG bit: Globally unique address (factory default)" size="3" pos="6" show="0" value="0" unmaskedvalue="4c72b9"/>
      <field name="eth.ig" showname=".... ...0 .... .... .... .... = IG bit: Individual address (unicast)" size="3" pos="6" show="0" value="0" unmaskedvalue="4c72b9"/>
    </field>
    <field name="eth.type" showname="Type: IP (0x0800)" size="2" pos="12" show="0x0800" value="0800"/>
  </proto>
  <proto name="ip" showname="Internet Protocol Version 4, Src: 10.48.1.195 (10.48.1.195), Dst: 132.246.11.228 (132.246.11.228)" size="20" pos="14">
    <field name="ip.version" showname="Version: 4" size="1" pos="14" show="4" value="45"/>
    <field name="ip.hdr_len" showname="Header length: 20 bytes" size="1" pos="14" show="20" value="45"/>
    <field name="ip.dsfield" showname="Differentiated Services Field: 0x00 (DSCP 0x00: Default; ECN: 0x00: Not-ECT (Not ECN-Capable Transport))" size="1" pos="15" show="0" value="00">
      <field name="ip.dsfield.dscp" showname="0000 00.. = Differentiated Services Codepoint: Default (0x00)" size="1" pos="15" show="0x00" value="0" unmaskedvalue="00"/>
      <field name="ip.dsfield.ecn" showname=".... ..00 = Explicit Congestion Notification: Not-ECT (Not ECN-Capable Transport) (0x00)" size="1" pos="15" show="0x00" value="0" unmaskedvalue="00"/>
    </field>
    <field name="ip.len" showname="Total Length: 76" size="2" pos="16" show="76" value="004c"/>
    <field name="ip.id" showname="Identification: 0x91d6 (37334)" size="2" pos="18" show="0x91d6" value="91d6"/>
    <field name="ip.flags" showname="Flags: 0x02 (Don&apos;t Fragment)" size="1" pos="20" show="0x02" value="40">
      <field name="ip.flags.rb" showname="0... .... = Reserved bit: Not set" size="1" pos="20" show="0" value="40"/>
      <field name="ip.flags.df" showname=".1.. .... = Don&apos;t fragment: Set" size="1" pos="20" show="1" value="40"/>
      <field name="ip.flags.mf" showname="..0. .... = More fragments: Not set" size="1" pos="20" show="0" value="40"/>
    </field>
    <field name="ip.frag_offset" showname="Fragment offset: 0" size="2" pos="20" show="0" value="4000"/>
    <field name="ip.ttl" showname="Time to live: 64" size="1" pos="22" show="64" value="40"/>
    <field name="ip.proto" showname="Protocol: UDP (17)" size="1" pos="23" show="17" value="11"/>
    <field name="ip.checksum" showname="Header checksum: 0x0bfe [correct]" size="2" pos="24" show="0x0bfe" value="0bfe">
      <field name="ip.checksum_good" showname="Good: True" size="2" pos="24" show="1" value="0bfe"/>
      <field name="ip.checksum_bad" showname="Bad: False" size="2" pos="24" show="0" value="0bfe"/>
    </field>
    <field name="ip.src" showname="Source: 10.48.1.195 (10.48.1.195)" size="4" pos="26" show="10.48.1.195" value="0a3001c3"/>
    <field name="ip.addr" showname="Source or Destination Address: 10.48.1.195 (10.48.1.195)" hide="yes" size="4" pos="26" show="10.48.1.195" value="0a3001c3"/>
    <field name="ip.src_host" showname="Source Host: 10.48.1.195" hide="yes" size="4" pos="26" show="10.48.1.195" value="0a3001c3"/>
    <field name="ip.host" showname="Source or Destination Host: 10.48.1.195" hide="yes" size="4" pos="26" show="10.48.1.195" value="0a3001c3"/>
    <field name="ip.dst" showname="Destination: 132.246.11.228 (132.246.11.228)" size="4" pos="30" show="132.246.11.228" value="84f60be4"/>
    <field name="ip.addr" showname="Source or Destination Address: 132.246.11.228 (132.246.11.228)" hide="yes" size="4" pos="30" show="132.246.11.228" value="84f60be4"/>
    <field name="ip.dst_host" showname="Destination Host: 132.246.11.228" hide="yes" size="4" pos="30" show="132.246.11.228" value="84f60be4"/>
    <field name="ip.host" showname="Source or Destination Host: 132.246.11.228" hide="yes" size="4" pos="30" show="132.246.11.228" value="84f60be4"/>
    <field name="" show="Source GeoIP: Unknown" size="4" pos="26" value="0a3001c3"/>
    <field name="" show="Destination GeoIP: Unknown" size="4" pos="30" value="84f60be4"/>
  </proto>
  <proto name="udp" showname="User Datagram Protocol, Src Port: ntp (123), Dst Port: ntp (123)" size="8" pos="34">
    <field name="udp.srcport" showname="Source port: ntp (123)" size="2" pos="34" show="123" value="007b"/>
    <field name="udp.dstport" showname="Destination port: ntp (123)" size="2" pos="36" show="123" value="007b"/>
    <field name="udp.port" showname="Source or Destination Port: 123" hide="yes" size="2" pos="34" show="123" value="007b"/>
    <field name="udp.port" showname="Source or Destination Port: 123" hide="yes" size="2" pos="36" show="123" value="007b"/>
    <field name="udp.length" showname="Length: 56" size="2" pos="38" show="56" value="0038"/>
    <field name="udp.checksum_coverage" showname="Checksum coverage: 56" hide="yes" size="0" pos="38" show="56"/>
    <field name="udp.checksum" showname="Checksum: 0xb963 [validation disabled]" size="2" pos="40" show="0xb963" value="b963">
      <field name="udp.checksum_good" showname="Good Checksum: False" size="2" pos="40" show="0" value="b963"/>
      <field name="udp.checksum_bad" showname="Bad Checksum: False" size="2" pos="40" show="0" value="b963"/>
    </field>
  </proto>
  <proto name="ntp" showname="Network Time Protocol (NTP Version 4, client)" size="48" pos="42">
    <field name="ntp.flags" showname="Flags: 0xe3" size="1" pos="42" show="0xe3" value="e3">
      <field name="ntp.flags.li" showname="11.. .... = Leap Indicator: unknown (clock unsynchronized) (3)" size="1" pos="42" show="3" value="3" unmaskedvalue="e3"/>
      <field name="ntp.flags.vn" showname="..10 0... = Version number: NTP Version 4 (4)" size="1" pos="42" show="4" value="4" unmaskedvalue="e3"/>
      <field name="ntp.flags.mode" showname=".... .011 = Mode: client (3)" size="1" pos="42" show="3" value="3" unmaskedvalue="e3"/>
    </field>
    <field name="ntp.stratum" showname="Peer Clock Stratum: unspecified or invalid (0)" size="1" pos="43" show="0" value="00"/>
    <field name="ntp.ppoll" showname="Peer Polling Interval: invalid (3)" size="1" pos="44" show="3" value="03"/>
    <field name="ntp.precision" showname="Peer Clock Precision: 0.015625 sec" size="1" pos="45" show="-6" value="fa"/>
    <field name="ntp.rootdelay" showname="Root Delay:    1.0000 sec" size="4" pos="46" show="1" value="00010000"/>
    <field name="ntp.rootdispersion" showname="Root Dispersion:    1.0000 sec" size="4" pos="50" show="1" value="00010000"/>
    <field name="ntp.refid" showname="Reference ID: NULL" size="4" pos="54" show="00:00:00:00" value="00000000"/>
    <field name="ntp.reftime" showname="Reference Timestamp: Jan  1, 1970 00:00:00.000000000 UTC" size="8" pos="58" show="Dec 31, 1969 20:30:00.000000000" value="0000000000000000"/>
    <field name="ntp.org" showname="Origin Timestamp: Jan  1, 1970 00:00:00.000000000 UTC" size="8" pos="66" show="Dec 31, 1969 20:30:00.000000000" value="0000000000000000"/>
    <field name="ntp.rec" showname="Receive Timestamp: Jan  1, 1970 00:00:00.000000000 UTC" size="8" pos="74" show="Dec 31, 1969 20:30:00.000000000" value="0000000000000000"/>
    <field name="ntp.xmt" showname="Transmit Timestamp: Jan  4, 2014 00:32:00.846637000 UTC" size="8" pos="82" show="Jan  3, 2014 21:02:00.846637000" value="d671d500d8bd3d2a"/>
  </proto>
</packet>

<packet>
  <proto name="geninfo" pos="0" showname="General information" size="90">
    <field name="num" pos="0" show="1543" showname="Number" value="607" size="90"/>
    <field name="len" pos="0" show="90" showname="Frame Length" value="5a" size="90"/>
    <field name="caplen" pos="0" show="90" showname="Captured Length" value="5a" size="90"/>
    <field name="timestamp" pos="0" show="Jan  3, 2014 21:02:00.903010000 NST" showname="Captured Time" value="1388795520.903010000" size="90"/>
  </proto>
  <proto name="frame" showname="Frame 1543: 90 bytes on wire (720 bits), 90 bytes captured (720 bits) on interface 0" size="90" pos="0">
    <field name="frame.interface_id" showname="Interface id: 0" size="0" pos="0" show="0"/>
    <field name="frame.encap_type" showname="Encapsulation type: Ethernet (1)" size="0" pos="0" show="1"/>
    <field name="frame.time" showname="Arrival Time: Jan  3, 2014 21:02:00.903010000 NST" size="0" pos="0" show="Jan  3, 2014 21:02:00.903010000"/>
    <field name="frame.offset_shift" showname="Time shift for this packet: 0.000000000 seconds" size="0" pos="0" show="0.000000000"/>
    <field name="frame.time_epoch" showname="Epoch Time: 1388795520.903010000 seconds" size="0" pos="0" show="1388795520.903010000"/>
    <field name="frame.time_delta" showname="Time delta from previous captured frame: 0.056330000 seconds" size="0" pos="0" show="0.056330000"/>
    <field name="frame.time_delta_displayed" showname="Time delta from previous displayed frame: 0.056330000 seconds" size="0" pos="0" show="0.056330000"/>
    <field name="frame.time_relative" showname="Time since reference or first frame: 541.930070000 seconds" size="0" pos="0" show="541.930070000"/>
    <field name="frame.number" showname="Frame Number: 1543" size="0" pos="0" show="1543"/>
    <field name="frame.len" showname="Frame Length: 90 bytes (720 bits)" size="0" pos="0" show="90"/>
    <field name="frame.cap_len" showname="Capture Length: 90 bytes (720 bits)" size="0" pos="0" show="90"/>
    <field name="frame.marked" showname="Frame is marked: True" size="0" pos="0" show="1"/>
    <field name="frame.ignored" showname="Frame is ignored: False" size="0" pos="0" show="0"/>
    <field name="frame.protocols" showname="Protocols in frame: eth:ip:udp:ntp" size="0" pos="0" show="eth:ip:udp:ntp"/>
    <field name="frame.coloring_rule.name" showname="Coloring Rule Name: UDP" size="0" pos="0" show="UDP"/>
    <field name="frame.coloring_rule.string" showname="Coloring Rule String: udp" size="0" pos="0" show="udp"/>
  </proto>
  <proto name="eth" showname="Ethernet II, Src: AsustekC_f6:97:3e (e0:cb:4e:f6:97:3e), Dst: Pegatron_2f:4d:48 (4c:72:b9:2f:4d:48)" size="14" pos="0">
    <field name="eth.dst" showname="Destination: Pegatron_2f:4d:48 (4c:72:b9:2f:4d:48)" size="6" pos="0" show="4c:72:b9:2f:4d:48" value="4c72b92f4d48">
      <field name="eth.addr" showname="Address: Pegatron_2f:4d:48 (4c:72:b9:2f:4d:48)" size="6" pos="0" show="4c:72:b9:2f:4d:48" value="4c72b92f4d48"/>
      <field name="eth.lg" showname=".... ..0. .... .... .... .... = LG bit: Globally unique address (factory default)" size="3" pos="0" show="0" value="0" unmaskedvalue="4c72b9"/>
      <field name="eth.ig" showname=".... ...0 .... .... .... .... = IG bit: Individual address (unicast)" size="3" pos="0" show="0" value="0" unmaskedvalue="4c72b9"/>
    </field>
    <field name="eth.src" showname="Source: AsustekC_f6:97:3e (e0:cb:4e:f6:97:3e)" size="6" pos="6" show="e0:cb:4e:f6:97:3e" value="e0cb4ef6973e">
      <field name="eth.addr" showname="Address: AsustekC_f6:97:3e (e0:cb:4e:f6:97:3e)" size="6" pos="6" show="e0:cb:4e:f6:97:3e" value="e0cb4ef6973e"/>
      <field name="eth.lg" showname=".... ..0. .... .... .... .... = LG bit: Globally unique address (factory default)" size="3" pos="6" show="0" value="0" unmaskedvalue="e0cb4e"/>
      <field name="eth.ig" showname=".... ...0 .... .... .... .... = IG bit: Individual address (unicast)" size="3" pos="6" show="0" value="0" unmaskedvalue="e0cb4e"/>
    </field>
    <field name="eth.type" showname="Type: IP (0x0800)" size="2" pos="12" show="0x0800" value="0800"/>
  </proto>
  <proto name="ip" showname="Internet Protocol Version 4, Src: 132.246.11.228 (132.246.11.228), Dst: 10.48.1.195 (10.48.1.195)" size="20" pos="14">
    <field name="ip.version" showname="Version: 4" size="1" pos="14" show="4" value="45"/>
    <field name="ip.hdr_len" showname="Header length: 20 bytes" size="1" pos="14" show="20" value="45"/>
    <field name="ip.dsfield" showname="Differentiated Services Field: 0x00 (DSCP 0x00: Default; ECN: 0x00: Not-ECT (Not ECN-Capable Transport))" size="1" pos="15" show="0" value="00">
      <field name="ip.dsfield.dscp" showname="0000 00.. = Differentiated Services Codepoint: Default (0x00)" size="1" pos="15" show="0x00" value="0" unmaskedvalue="00"/>
      <field name="ip.dsfield.ecn" showname=".... ..00 = Explicit Congestion Notification: Not-ECT (Not ECN-Capable Transport) (0x00)" size="1" pos="15" show="0x00" value="0" unmaskedvalue="00"/>
    </field>
    <field name="ip.len" showname="Total Length: 76" size="2" pos="16" show="76" value="004c"/>
    <field name="ip.id" showname="Identification: 0x0000 (0)" size="2" pos="18" show="0x0000" value="0000"/>
    <field name="ip.flags" showname="Flags: 0x02 (Don&apos;t Fragment)" size="1" pos="20" show="0x02" value="40">
      <field name="ip.flags.rb" showname="0... .... = Reserved bit: Not set" size="1" pos="20" show="0" value="40"/>
      <field name="ip.flags.df" showname=".1.. .... = Don&apos;t fragment: Set" size="1" pos="20" show="1" value="40"/>
      <field name="ip.flags.mf" showname="..0. .... = More fragments: Not set" size="1" pos="20" show="0" value="40"/>
    </field>
    <field name="ip.frag_offset" showname="Fragment offset: 0" size="2" pos="20" show="0" value="4000"/>
    <field name="ip.ttl" showname="Time to live: 53" size="1" pos="22" show="53" value="35"/>
    <field name="ip.proto" showname="Protocol: UDP (17)" size="1" pos="23" show="17" value="11"/>
    <field name="ip.checksum" showname="Header checksum: 0xa8d4 [correct]" size="2" pos="24" show="0xa8d4" value="a8d4">
      <field name="ip.checksum_good" showname="Good: True" size="2" pos="24" show="1" value="a8d4"/>
      <field name="ip.checksum_bad" showname="Bad: False" size="2" pos="24" show="0" value="a8d4"/>
    </field>
    <field name="ip.src" showname="Source: 132.246.11.228 (132.246.11.228)" size="4" pos="26" show="132.246.11.228" value="84f60be4"/>
    <field name="ip.addr" showname="Source or Destination Address: 132.246.11.228 (132.246.11.228)" hide="yes" size="4" pos="26" show="132.246.11.228" value="84f60be4"/>
    <field name="ip.src_host" showname="Source Host: 132.246.11.228" hide="yes" size="4" pos="26" show="132.246.11.228" value="84f60be4"/>
    <field name="ip.host" showname="Source or Destination Host: 132.246.11.228" hide="yes" size="4" pos="26" show="132.246.11.228" value="84f60be4"/>
    <field name="ip.dst" showname="Destination: 10.48.1.195 (10.48.1.195)" size="4" pos="30" show="10.48.1.195" value="0a3001c3"/>
    <field name="ip.addr" showname="Source or Destination Address: 10.48.1.195 (10.48.1.195)" hide="yes" size="4" pos="30" show="10.48.1.195" value="0a3001c3"/>
    <field name="ip.dst_host" showname="Destination Host: 10.48.1.195" hide="yes" size="4" pos="30" show="10.48.1.195" value="0a3001c3"/>
    <field name="ip.host" showname="Source or Destination Host: 10.48.1.195" hide="yes" size="4" pos="30" show="10.48.1.195" value="0a3001c3"/>
    <field name="" show="Source GeoIP: Unknown" size="4" pos="26" value="84f60be4"/>
    <field name="" show="Destination GeoIP: Unknown" size="4" pos="30" value="0a3001c3"/>
  </proto>
  <proto name="udp" showname="User Datagram Protocol, Src Port: ntp (123), Dst Port: ntp (123)" size="8" pos="34">
    <field name="udp.srcport" showname="Source port: ntp (123)" size="2" pos="34" show="123" value="007b"/>
    <field name="udp.dstport" showname="Destination port: ntp (123)" size="2" pos="36" show="123" value="007b"/>
    <field name="udp.port" showname="Source or Destination Port: 123" hide="yes" size="2" pos="34" show="123" value="007b"/>
    <field name="udp.port" showname="Source or Destination Port: 123" hide="yes" size="2" pos="36" show="123" value="007b"/>
    <field name="udp.length" showname="Length: 56" size="2" pos="38" show="56" value="0038"/>
    <field name="udp.checksum_coverage" showname="Checksum coverage: 56" hide="yes" size="0" pos="38" show="56"/>
    <field name="udp.checksum" showname="Checksum: 0xb176 [validation disabled]" size="2" pos="40" show="0xb176" value="b176">
      <field name="udp.checksum_good" showname="Good Checksum: False" size="2" pos="40" show="0" value="b176"/>
      <field name="udp.checksum_bad" showname="Bad Checksum: False" size="2" pos="40" show="0" value="b176"/>
    </field>
  </proto>
  <proto name="ntp" showname="Network Time Protocol (NTP Version 4, server)" size="48" pos="42">
    <field name="ntp.flags" showname="Flags: 0x24" size="1" pos="42" show="0x24" value="24">
      <field name="ntp.flags.li" showname="00.. .... = Leap Indicator: no warning (0)" size="1" pos="42" show="0" value="0" unmaskedvalue="24"/>
      <field name="ntp.flags.vn" showname="..10 0... = Version number: NTP Version 4 (4)" size="1" pos="42" show="4" value="4" unmaskedvalue="24"/>
      <field name="ntp.flags.mode" showname=".... .100 = Mode: server (4)" size="1" pos="42" show="4" value="4" unmaskedvalue="24"/>
    </field>
    <field name="ntp.stratum" showname="Peer Clock Stratum: secondary reference (2)" size="1" pos="43" show="2" value="02"/>
    <field name="ntp.ppoll" showname="Peer Polling Interval: invalid (3)" size="1" pos="44" show="3" value="03"/>
    <field name="ntp.precision" showname="Peer Clock Precision: 0.000001 sec" size="1" pos="45" show="-20" value="ec"/>
    <field name="ntp.rootdelay" showname="Root Delay:    0.0001 sec" size="4" pos="46" show="0.0001068115234375" value="00000007"/>
    <field name="ntp.rootdispersion" showname="Root Dispersion:    0.0059 sec" size="4" pos="50" show="0.005859375" value="00000180"/>
    <field name="ntp.refid" showname="Reference ID: 132.246.11.231" size="4" pos="54" show="84:f6:0b:e7" value="84f60be7"/>
    <field name="ntp.reftime" showname="Reference Timestamp: Jan  4, 2014 00:31:26.312504000 UTC" size="8" pos="58" show="Jan  3, 2014 21:01:26.312504000" value="d671d4de50004fe9"/>
    <field name="ntp.org" showname="Origin Timestamp: Jan  4, 2014 00:32:00.846637000 UTC" size="8" pos="66" show="Jan  3, 2014 21:02:00.846637000" value="d671d500d8bd3d2a"/>
    <field name="ntp.rec" showname="Receive Timestamp: Jan  4, 2014 00:31:59.980201000 UTC" size="8" pos="74" show="Jan  3, 2014 21:01:59.980201000" value="d671d4fffaee8388"/>
    <field name="ntp.xmt" showname="Transmit Timestamp: Jan  4, 2014 00:31:59.980226000 UTC" size="8" pos="82" show="Jan  3, 2014 21:01:59.980226000" value="d671d4fffaf01911"/>
  </proto>
</packet>

<packet>
  <proto name="geninfo" pos="0" showname="General information" size="90">
    <field name="num" pos="0" show="1544" showname="Number" value="608" size="90"/>
    <field name="len" pos="0" show="90" showname="Frame Length" value="5a" size="90"/>
    <field name="caplen" pos="0" show="90" showname="Captured Length" value="5a" size="90"/>
    <field name="timestamp" pos="0" show="Jan  3, 2014 21:02:02.446678000 NST" showname="Captured Time" value="1388795522.446678000" size="90"/>
  </proto>
  <proto name="frame" showname="Frame 1544: 90 bytes on wire (720 bits), 90 bytes captured (720 bits) on interface 0" size="90" pos="0">
    <field name="frame.interface_id" showname="Interface id: 0" size="0" pos="0" show="0"/>
    <field name="frame.encap_type" showname="Encapsulation type: Ethernet (1)" size="0" pos="0" show="1"/>
    <field name="frame.time" showname="Arrival Time: Jan  3, 2014 21:02:02.446678000 NST" size="0" pos="0" show="Jan  3, 2014 21:02:02.446678000"/>
    <field name="frame.offset_shift" showname="Time shift for this packet: 0.000000000 seconds" size="0" pos="0" show="0.000000000"/>
    <field name="frame.time_epoch" showname="Epoch Time: 1388795522.446678000 seconds" size="0" pos="0" show="1388795522.446678000"/>
    <field name="frame.time_delta" showname="Time delta from previous captured frame: 1.543668000 seconds" size="0" pos="0" show="1.543668000"/>
    <field name="frame.time_delta_displayed" showname="Time delta from previous displayed frame: 1.543668000 seconds" size="0" pos="0" show="1.543668000"/>
    <field name="frame.time_relative" showname="Time since reference or first frame: 543.473738000 seconds" size="0" pos="0" show="543.473738000"/>
    <field name="frame.number" showname="Frame Number: 1544" size="0" pos="0" show="1544"/>
    <field name="frame.len" showname="Frame Length: 90 bytes (720 bits)" size="0" pos="0" show="90"/>
    <field name="frame.cap_len" showname="Capture Length: 90 bytes (720 bits)" size="0" pos="0" show="90"/>
    <field name="frame.marked" showname="Frame is marked: True" size="0" pos="0" show="1"/>
    <field name="frame.ignored" showname="Frame is ignored: False" size="0" pos="0" show="0"/>
    <field name="frame.protocols" showname="Protocols in frame: eth:ip:udp:ntp" size="0" pos="0" show="eth:ip:udp:ntp"/>
    <field name="frame.coloring_rule.name" showname="Coloring Rule Name: UDP" size="0" pos="0" show="UDP"/>
    <field name="frame.coloring_rule.string" showname="Coloring Rule String: udp" size="0" pos="0" show="udp"/>
  </proto>
  <proto name="eth" showname="Ethernet II, Src: Pegatron_2f:4d:48 (4c:72:b9:2f:4d:48), Dst: AsustekC_f6:97:3e (e0:cb:4e:f6:97:3e)" size="14" pos="0">
    <field name="eth.dst" showname="Destination: AsustekC_f6:97:3e (e0:cb:4e:f6:97:3e)" size="6" pos="0" show="e0:cb:4e:f6:97:3e" value="e0cb4ef6973e">
      <field name="eth.addr" showname="Address: AsustekC_f6:97:3e (e0:cb:4e:f6:97:3e)" size="6" pos="0" show="e0:cb:4e:f6:97:3e" value="e0cb4ef6973e"/>
      <field name="eth.lg" showname=".... ..0. .... .... .... .... = LG bit: Globally unique address (factory default)" size="3" pos="0" show="0" value="0" unmaskedvalue="e0cb4e"/>
      <field name="eth.ig" showname=".... ...0 .... .... .... .... = IG bit: Individual address (unicast)" size="3" pos="0" show="0" value="0" unmaskedvalue="e0cb4e"/>
    </field>
    <field name="eth.src" showname="Source: Pegatron_2f:4d:48 (4c:72:b9:2f:4d:48)" size="6" pos="6" show="4c:72:b9:2f:4d:48" value="4c72b92f4d48">
      <field name="eth.addr" showname="Address: Pegatron_2f:4d:48 (4c:72:b9:2f:4d:48)" size="6" pos="6" show="4c:72:b9:2f:4d:48" value="4c72b92f4d48"/>
      <field name="eth.lg" showname=".... ..0. .... .... .... .... = LG bit: Globally unique address (factory default)" size="3" pos="6" show="0" value="0" unmaskedvalue="4c72b9"/>
      <field name="eth.ig" showname=".... ...0 .... .... .... .... = IG bit: Individual address (unicast)" size="3" pos="6" show="0" value="0" unmaskedvalue="4c72b9"/>
    </field>
    <field name="eth.type" showname="Type: IP (0x0800)" size="2" pos="12" show="0x0800" value="0800"/>
  </proto>
  <proto name="ip" showname="Internet Protocol Version 4, Src: 10.48.1.195 (10.48.1.195), Dst: 132.246.11.227 (132.246.11.227)" size="20" pos="14">
    <field name="ip.version" showname="Version: 4" size="1" pos="14" show="4" value="45"/>
    <field name="ip.hdr_len" showname="Header length: 20 bytes" size="1" pos="14" show="20" value="45"/>
    <field name="ip.dsfield" showname="Differentiated Services Field: 0x00 (DSCP 0x00: Default; ECN: 0x00: Not-ECT (Not ECN-Capable Transport))" size="1" pos="15" show="0" value="00">
      <field name="ip.dsfield.dscp" showname="0000 00.. = Differentiated Services Codepoint: Default (0x00)" size="1" pos="15" show="0x00" value="0" unmaskedvalue="00"/>
      <field name="ip.dsfield.ecn" showname=".... ..00 = Explicit Congestion Notification: Not-ECT (Not ECN-Capable Transport) (0x00)" size="1" pos="15" show="0x00" value="0" unmaskedvalue="00"/>
    </field>
    <field name="ip.len" showname="Total Length: 76" size="2" pos="16" show="76" value="004c"/>
    <field name="ip.id" showname="Identification: 0xc511 (50449)" size="2" pos="18" show="0xc511" value="c511"/>
    <field name="ip.flags" showname="Flags: 0x02 (Don&apos;t Fragment)" size="1" pos="20" show="0x02" value="40">
      <field name="ip.flags.rb" showname="0... .... = Reserved bit: Not set" size="1" pos="20" show="0" value="40"/>
      <field name="ip.flags.df" showname=".1.. .... = Don&apos;t fragment: Set" size="1" pos="20" show="1" value="40"/>
      <field name="ip.flags.mf" showname="..0. .... = More fragments: Not set" size="1" pos="20" show="0" value="40"/>
    </field>
    <field name="ip.frag_offset" showname="Fragment offset: 0" size="2" pos="20" show="0" value="4000"/>
    <field name="ip.ttl" showname="Time to live: 64" size="1" pos="22" show="64" value="40"/>
    <field name="ip.proto" showname="Protocol: UDP (17)" size="1" pos="23" show="17" value="11"/>
    <field name="ip.checksum" showname="Header checksum: 0xd8c3 [correct]" size="2" pos="24" show="0xd8c3" value="d8c3">
      <field name="ip.checksum_good" showname="Good: True" size="2" pos="24" show="1" value="d8c3"/>
      <field name="ip.checksum_bad" showname="Bad: False" size="2" pos="24" show="0" value="d8c3"/>
    </field>
    <field name="ip.src" showname="Source: 10.48.1.195 (10.48.1.195)" size="4" pos="26" show="10.48.1.195" value="0a3001c3"/>
    <field name="ip.addr" showname="Source or Destination Address: 10.48.1.195 (10.48.1.195)" hide="yes" size="4" pos="26" show="10.48.1.195" value="0a3001c3"/>
    <field name="ip.src_host" showname="Source Host: 10.48.1.195" hide="yes" size="4" pos="26" show="10.48.1.195" value="0a3001c3"/>
    <field name="ip.host" showname="Source or Destination Host: 10.48.1.195" hide="yes" size="4" pos="26" show="10.48.1.195" value="0a3001c3"/>
    <field name="ip.dst" showname="Destination: 132.246.11.227 (132.246.11.227)" size="4" pos="30" show="132.246.11.227" value="84f60be3"/>
    <field name="ip.addr" showname="Source or Destination Address: 132.246.11.227 (132.246.11.227)" hide="yes" size="4" pos="30" show="132.246.11.227" value="84f60be3"/>
    <field name="ip.dst_host" showname="Destination Host: 132.246.11.227" hide="yes" size="4" pos="30" show="132.246.11.227" value="84f60be3"/>
    <field name="ip.host" showname="Source or Destination Host: 132.246.11.227" hide="yes" size="4" pos="30" show="132.246.11.227" value="84f60be3"/>
    <field name="" show="Source GeoIP: Unknown" size="4" pos="26" value="0a3001c3"/>
    <field name="" show="Destination GeoIP: Unknown" size="4" pos="30" value="84f60be3"/>
  </proto>
  <proto name="udp" showname="User Datagram Protocol, Src Port: ntp (123), Dst Port: ntp (123)" size="8" pos="34">
    <field name="udp.srcport" showname="Source port: ntp (123)" size="2" pos="34" show="123" value="007b"/>
    <field name="udp.dstport" showname="Destination port: ntp (123)" size="2" pos="36" show="123" value="007b"/>
    <field name="udp.port" showname="Source or Destination Port: 123" hide="yes" size="2" pos="34" show="123" value="007b"/>
    <field name="udp.port" showname="Source or Destination Port: 123" hide="yes" size="2" pos="36" show="123" value="007b"/>
    <field name="udp.length" showname="Length: 56" size="2" pos="38" show="56" value="0038"/>
    <field name="udp.checksum_coverage" showname="Checksum coverage: 56" hide="yes" size="0" pos="38" show="56"/>
    <field name="udp.checksum" showname="Checksum: 0xa0dc [validation disabled]" size="2" pos="40" show="0xa0dc" value="a0dc">
      <field name="udp.checksum_good" showname="Good Checksum: False" size="2" pos="40" show="0" value="a0dc"/>
      <field name="udp.checksum_bad" showname="Bad Checksum: False" size="2" pos="40" show="0" value="a0dc"/>
    </field>
  </proto>
  <proto name="ntp" showname="Network Time Protocol (NTP Version 4, client)" size="48" pos="42">
    <field name="ntp.flags" showname="Flags: 0xe3" size="1" pos="42" show="0xe3" value="e3">
      <field name="ntp.flags.li" showname="11.. .... = Leap Indicator: unknown (clock unsynchronized) (3)" size="1" pos="42" show="3" value="3" unmaskedvalue="e3"/>
      <field name="ntp.flags.vn" showname="..10 0... = Version number: NTP Version 4 (4)" size="1" pos="42" show="4" value="4" unmaskedvalue="e3"/>
      <field name="ntp.flags.mode" showname=".... .011 = Mode: client (3)" size="1" pos="42" show="3" value="3" unmaskedvalue="e3"/>
    </field>
    <field name="ntp.stratum" showname="Peer Clock Stratum: unspecified or invalid (0)" size="1" pos="43" show="0" value="00"/>
    <field name="ntp.ppoll" showname="Peer Polling Interval: invalid (3)" size="1" pos="44" show="3" value="03"/>
    <field name="ntp.precision" showname="Peer Clock Precision: 0.015625 sec" size="1" pos="45" show="-6" value="fa"/>
    <field name="ntp.rootdelay" showname="Root Delay:    1.0000 sec" size="4" pos="46" show="1" value="00010000"/>
    <field name="ntp.rootdispersion" showname="Root Dispersion:    1.0000 sec" size="4" pos="50" show="1" value="00010000"/>
    <field name="ntp.refid" showname="Reference ID: NULL" size="4" pos="54" show="00:00:00:00" value="00000000"/>
    <field name="ntp.reftime" showname="Reference Timestamp: Jan  1, 1970 00:00:00.000000000 UTC" size="8" pos="58" show="Dec 31, 1969 20:30:00.000000000" value="0000000000000000"/>
    <field name="ntp.org" showname="Origin Timestamp: Jan  1, 1970 00:00:00.000000000 UTC" size="8" pos="66" show="Dec 31, 1969 20:30:00.000000000" value="0000000000000000"/>
    <field name="ntp.rec" showname="Receive Timestamp: Jan  1, 1970 00:00:00.000000000 UTC" size="8" pos="74" show="Dec 31, 1969 20:30:00.000000000" value="0000000000000000"/>
    <field name="ntp.xmt" showname="Transmit Timestamp: Jan  4, 2014 00:32:02.446635000 UTC" size="8" pos="82" show="Jan  3, 2014 21:02:02.446635000" value="d671d5027256bc17"/>
  </proto>
</packet>

<packet>
  <proto name="geninfo" pos="0" showname="General information" size="90">
    <field name="num" pos="0" show="1545" showname="Number" value="609" size="90"/>
    <field name="len" pos="0" show="90" showname="Frame Length" value="5a" size="90"/>
    <field name="caplen" pos="0" show="90" showname="Captured Length" value="5a" size="90"/>
    <field name="timestamp" pos="0" show="Jan  3, 2014 21:02:02.646678000 NST" showname="Captured Time" value="1388795522.646678000" size="90"/>
  </proto>
  <proto name="frame" showname="Frame 1545: 90 bytes on wire (720 bits), 90 bytes captured (720 bits) on interface 0" size="90" pos="0">
    <field name="frame.interface_id" showname="Interface id: 0" size="0" pos="0" show="0"/>
    <field name="frame.encap_type" showname="Encapsulation type: Ethernet (1)" size="0" pos="0" show="1"/>
    <field name="frame.time" showname="Arrival Time: Jan  3, 2014 21:02:02.646678000 NST" size="0" pos="0" show="Jan  3, 2014 21:02:02.646678000"/>
    <field name="frame.offset_shift" showname="Time shift for this packet: 0.000000000 seconds" size="0" pos="0" show="0.000000000"/>
    <field name="frame.time_epoch" showname="Epoch Time: 1388795522.646678000 seconds" size="0" pos="0" show="1388795522.646678000"/>
    <field name="frame.time_delta" showname="Time delta from previous captured frame: 0.200000000 seconds" size="0" pos="0" show="0.200000000"/>
    <field name="frame.time_delta_displayed" showname="Time delta from previous displayed frame: 0.200000000 seconds" size="0" pos="0" show="0.200000000"/>
    <field name="frame.time_relative" showname="Time since reference or first frame: 543.673738000 seconds" size="0" pos="0" show="543.673738000"/>
    <field name="frame.number" showname="Frame Number: 1545" size="0" pos="0" show="1545"/>
    <field name="frame.len" showname="Frame Length: 90 bytes (720 bits)" size="0" pos="0" show="90"/>
    <field name="frame.cap_len" showname="Capture Length: 90 bytes (720 bits)" size="0" pos="0" show="90"/>
    <field name="frame.marked" showname="Frame is marked: True" size="0" pos="0" show="1"/>
    <field name="frame.ignored" showname="Frame is ignored: False" size="0" pos="0" show="0"/>
    <field name="frame.protocols" showname="Protocols in frame: eth:ip:udp:ntp" size="0" pos="0" show="eth:ip:udp:ntp"/>
    <field name="frame.coloring_rule.name" showname="Coloring Rule Name: UDP" size="0" pos="0" show="UDP"/>
    <field name="frame.coloring_rule.string" showname="Coloring Rule String: udp" size="0" pos="0" show="udp"/>
  </proto>
  <proto name="eth" showname="Ethernet II, Src: Pegatron_2f:4d:48 (4c:72:b9:2f:4d:48), Dst: AsustekC_f6:97:3e (e0:cb:4e:f6:97:3e)" size="14" pos="0">
    <field name="eth.dst" showname="Destination: AsustekC_f6:97:3e (e0:cb:4e:f6:97:3e)" size="6" pos="0" show="e0:cb:4e:f6:97:3e" value="e0cb4ef6973e">
      <field name="eth.addr" showname="Address: AsustekC_f6:97:3e (e0:cb:4e:f6:97:3e)" size="6" pos="0" show="e0:cb:4e:f6:97:3e" value="e0cb4ef6973e"/>
      <field name="eth.lg" showname=".... ..0. .... .... .... .... = LG bit: Globally unique address (factory default)" size="3" pos="0" show="0" value="0" unmaskedvalue="e0cb4e"/>
      <field name="eth.ig" showname=".... ...0 .... .... .... .... = IG bit: Individual address (unicast)" size="3" pos="0" show="0" value="0" unmaskedvalue="e0cb4e"/>
    </field>
    <field name="eth.src" showname="Source: Pegatron_2f:4d:48 (4c:72:b9:2f:4d:48)" size="6" pos="6" show="4c:72:b9:2f:4d:48" value="4c72b92f4d48">
      <field name="eth.addr" showname="Address: Pegatron_2f:4d:48 (4c:72:b9:2f:4d:48)" size="6" pos="6" show="4c:72:b9:2f:4d:48" value="4c72b92f4d48"/>
      <field name="eth.lg" showname=".... ..0. .... .... .... .... = LG bit: Globally unique address (factory default)" size="3" pos="6" show="0" value="0" unmaskedvalue="4c72b9"/>
      <field name="eth.ig" showname=".... ...0 .... .... .... .... = IG bit: Individual address (unicast)" size="3" pos="6" show="0" value="0" unmaskedvalue="4c72b9"/>
    </field>
    <field name="eth.type" showname="Type: IP (0x0800)" size="2" pos="12" show="0x0800" value="0800"/>
  </proto>
  <proto name="ip" showname="Internet Protocol Version 4, Src: 10.48.1.195 (10.48.1.195), Dst: 132.246.11.229 (132.246.11.229)" size="20" pos="14">
    <field name="ip.version" showname="Version: 4" size="1" pos="14" show="4" value="45"/>
    <field name="ip.hdr_len" showname="Header length: 20 bytes" size="1" pos="14" show="20" value="45"/>
    <field name="ip.dsfield" showname="Differentiated Services Field: 0x00 (DSCP 0x00: Default; ECN: 0x00: Not-ECT (Not ECN-Capable Transport))" size="1" pos="15" show="0" value="00">
      <field name="ip.dsfield.dscp" showname="0000 00.. = Differentiated Services Codepoint: Default (0x00)" size="1" pos="15" show="0x00" value="0" unmaskedvalue="00"/>
      <field name="ip.dsfield.ecn" showname=".... ..00 = Explicit Congestion Notification: Not-ECT (Not ECN-Capable Transport) (0x00)" size="1" pos="15" show="0x00" value="0" unmaskedvalue="00"/>
    </field>
    <field name="ip.len" showname="Total Length: 76" size="2" pos="16" show="76" value="004c"/>
    <field name="ip.id" showname="Identification: 0x5250 (21072)" size="2" pos="18" show="0x5250" value="5250"/>
    <field name="ip.flags" showname="Flags: 0x02 (Don&apos;t Fragment)" size="1" pos="20" show="0x02" value="40">
      <field name="ip.flags.rb" showname="0... .... = Reserved bit: Not set" size="1" pos="20" show="0" value="40"/>
      <field name="ip.flags.df" showname=".1.. .... = Don&apos;t fragment: Set" size="1" pos="20" show="1" value="40"/>
      <field name="ip.flags.mf" showname="..0. .... = More fragments: Not set" size="1" pos="20" show="0" value="40"/>
    </field>
    <field name="ip.frag_offset" showname="Fragment offset: 0" size="2" pos="20" show="0" value="4000"/>
    <field name="ip.ttl" showname="Time to live: 64" size="1" pos="22" show="64" value="40"/>
    <field name="ip.proto" showname="Protocol: UDP (17)" size="1" pos="23" show="17" value="11"/>
    <field name="ip.checksum" showname="Header checksum: 0x4b83 [correct]" size="2" pos="24" show="0x4b83" value="4b83">
      <field name="ip.checksum_good" showname="Good: True" size="2" pos="24" show="1" value="4b83"/>
      <field name="ip.checksum_bad" showname="Bad: False" size="2" pos="24" show="0" value="4b83"/>
    </field>
    <field name="ip.src" showname="Source: 10.48.1.195 (10.48.1.195)" size="4" pos="26" show="10.48.1.195" value="0a3001c3"/>
    <field name="ip.addr" showname="Source or Destination Address: 10.48.1.195 (10.48.1.195)" hide="yes" size="4" pos="26" show="10.48.1.195" value="0a3001c3"/>
    <field name="ip.src_host" showname="Source Host: 10.48.1.195" hide="yes" size="4" pos="26" show="10.48.1.195" value="0a3001c3"/>
    <field name="ip.host" showname="Source or Destination Host: 10.48.1.195" hide="yes" size="4" pos="26" show="10.48.1.195" value="0a3001c3"/>
    <field name="ip.dst" showname="Destination: 132.246.11.229 (132.246.11.229)" size="4" pos="30" show="132.246.11.229" value="84f60be5"/>
    <field name="ip.addr" showname="Source or Destination Address: 132.246.11.229 (132.246.11.229)" hide="yes" size="4" pos="30" show="132.246.11.229" value="84f60be5"/>
    <field name="ip.dst_host" showname="Destination Host: 132.246.11.229" hide="yes" size="4" pos="30" show="132.246.11.229" value="84f60be5"/>
    <field name="ip.host" showname="Source or Destination Host: 132.246.11.229" hide="yes" size="4" pos="30" show="132.246.11.229" value="84f60be5"/>
    <field name="" show="Source GeoIP: Unknown" size="4" pos="26" value="0a3001c3"/>
    <field name="" show="Destination GeoIP: Unknown" size="4" pos="30" value="84f60be5"/>
  </proto>
  <proto name="udp" showname="User Datagram Protocol, Src Port: ntp (123), Dst Port: ntp (123)" size="8" pos="34">
    <field name="udp.srcport" showname="Source port: ntp (123)" size="2" pos="34" show="123" value="007b"/>
    <field name="udp.dstport" showname="Destination port: ntp (123)" size="2" pos="36" show="123" value="007b"/>
    <field name="udp.port" showname="Source or Destination Port: 123" hide="yes" size="2" pos="34" show="123" value="007b"/>
    <field name="udp.port" showname="Source or Destination Port: 123" hide="yes" size="2" pos="36" show="123" value="007b"/>
    <field name="udp.length" showname="Length: 56" size="2" pos="38" show="56" value="0038"/>
    <field name="udp.checksum_coverage" showname="Checksum coverage: 56" hide="yes" size="0" pos="38" show="56"/>
    <field name="udp.checksum" showname="Checksum: 0x3827 [validation disabled]" size="2" pos="40" show="0x3827" value="3827">
      <field name="udp.checksum_good" showname="Good Checksum: False" size="2" pos="40" show="0" value="3827"/>
      <field name="udp.checksum_bad" showname="Bad Checksum: False" size="2" pos="40" show="0" value="3827"/>
    </field>
  </proto>
  <proto name="ntp" showname="Network Time Protocol (NTP Version 4, client)" size="48" pos="42">
    <field name="ntp.flags" showname="Flags: 0xe3" size="1" pos="42" show="0xe3" value="e3">
      <field name="ntp.flags.li" showname="11.. .... = Leap Indicator: unknown (clock unsynchronized) (3)" size="1" pos="42" show="3" value="3" unmaskedvalue="e3"/>
      <field name="ntp.flags.vn" showname="..10 0... = Version number: NTP Version 4 (4)" size="1" pos="42" show="4" value="4" unmaskedvalue="e3"/>
      <field name="ntp.flags.mode" showname=".... .011 = Mode: client (3)" size="1" pos="42" show="3" value="3" unmaskedvalue="e3"/>
    </field>
    <field name="ntp.stratum" showname="Peer Clock Stratum: unspecified or invalid (0)" size="1" pos="43" show="0" value="00"/>
    <field name="ntp.ppoll" showname="Peer Polling Interval: invalid (3)" size="1" pos="44" show="3" value="03"/>
    <field name="ntp.precision" showname="Peer Clock Precision: 0.015625 sec" size="1" pos="45" show="-6" value="fa"/>
    <field name="ntp.rootdelay" showname="Root Delay:    1.0000 sec" size="4" pos="46" show="1" value="00010000"/>
    <field name="ntp.rootdispersion" showname="Root Dispersion:    1.0000 sec" size="4" pos="50" show="1" value="00010000"/>
    <field name="ntp.refid" showname="Reference ID: NULL" size="4" pos="54" show="00:00:00:00" value="00000000"/>
    <field name="ntp.reftime" showname="Reference Timestamp: Jan  1, 1970 00:00:00.000000000 UTC" size="8" pos="58" show="Dec 31, 1969 20:30:00.000000000" value="0000000000000000"/>
    <field name="ntp.org" showname="Origin Timestamp: Jan  1, 1970 00:00:00.000000000 UTC" size="8" pos="66" show="Dec 31, 1969 20:30:00.000000000" value="0000000000000000"/>
    <field name="ntp.rec" showname="Receive Timestamp: Jan  1, 1970 00:00:00.000000000 UTC" size="8" pos="74" show="Dec 31, 1969 20:30:00.000000000" value="0000000000000000"/>
    <field name="ntp.xmt" showname="Transmit Timestamp: Jan  4, 2014 00:32:02.646636000 UTC" size="8" pos="82" show="Jan  3, 2014 21:02:02.646636000" value="d671d502a589f197"/>
  </proto>
</packet>

<packet>
  <proto name="geninfo" pos="0" showname="General information" size="90">
    <field name="num" pos="0" show="1546" showname="Number" value="60a" size="90"/>
    <field name="len" pos="0" show="90" showname="Frame Length" value="5a" size="90"/>
    <field name="caplen" pos="0" show="90" showname="Captured Length" value="5a" size="90"/>
    <field name="timestamp" pos="0" show="Jan  3, 2014 21:02:02.703643000 NST" showname="Captured Time" value="1388795522.703643000" size="90"/>
  </proto>
  <proto name="frame" showname="Frame 1546: 90 bytes on wire (720 bits), 90 bytes captured (720 bits) on interface 0" size="90" pos="0">
    <field name="frame.interface_id" showname="Interface id: 0" size="0" pos="0" show="0"/>
    <field name="frame.encap_type" showname="Encapsulation type: Ethernet (1)" size="0" pos="0" show="1"/>
    <field name="frame.time" showname="Arrival Time: Jan  3, 2014 21:02:02.703643000 NST" size="0" pos="0" show="Jan  3, 2014 21:02:02.703643000"/>
    <field name="frame.offset_shift" showname="Time shift for this packet: 0.000000000 seconds" size="0" pos="0" show="0.000000000"/>
    <field name="frame.time_epoch" showname="Epoch Time: 1388795522.703643000 seconds" size="0" pos="0" show="1388795522.703643000"/>
    <field name="frame.time_delta" showname="Time delta from previous captured frame: 0.056965000 seconds" size="0" pos="0" show="0.056965000"/>
    <field name="frame.time_delta_displayed" showname="Time delta from previous displayed frame: 0.056965000 seconds" size="0" pos="0" show="0.056965000"/>
    <field name="frame.time_relative" showname="Time since reference or first frame: 543.730703000 seconds" size="0" pos="0" show="543.730703000"/>
    <field name="frame.number" showname="Frame Number: 1546" size="0" pos="0" show="1546"/>
    <field name="frame.len" showname="Frame Length: 90 bytes (720 bits)" size="0" pos="0" show="90"/>
    <field name="frame.cap_len" showname="Capture Length: 90 bytes (720 bits)" size="0" pos="0" show="90"/>
    <field name="frame.marked" showname="Frame is marked: True" size="0" pos="0" show="1"/>
    <field name="frame.ignored" showname="Frame is ignored: False" size="0" pos="0" show="0"/>
    <field name="frame.protocols" showname="Protocols in frame: eth:ip:udp:ntp" size="0" pos="0" show="eth:ip:udp:ntp"/>
    <field name="frame.coloring_rule.name" showname="Coloring Rule Name: UDP" size="0" pos="0" show="UDP"/>
    <field name="frame.coloring_rule.string" showname="Coloring Rule String: udp" size="0" pos="0" show="udp"/>
  </proto>
  <proto name="eth" showname="Ethernet II, Src: AsustekC_f6:97:3e (e0:cb:4e:f6:97:3e), Dst: Pegatron_2f:4d:48 (4c:72:b9:2f:4d:48)" size="14" pos="0">
    <field name="eth.dst" showname="Destination: Pegatron_2f:4d:48 (4c:72:b9:2f:4d:48)" size="6" pos="0" show="4c:72:b9:2f:4d:48" value="4c72b92f4d48">
      <field name="eth.addr" showname="Address: Pegatron_2f:4d:48 (4c:72:b9:2f:4d:48)" size="6" pos="0" show="4c:72:b9:2f:4d:48" value="4c72b92f4d48"/>
      <field name="eth.lg" showname=".... ..0. .... .... .... .... = LG bit: Globally unique address (factory default)" size="3" pos="0" show="0" value="0" unmaskedvalue="4c72b9"/>
      <field name="eth.ig" showname=".... ...0 .... .... .... .... = IG bit: Individual address (unicast)" size="3" pos="0" show="0" value="0" unmaskedvalue="4c72b9"/>
    </field>
    <field name="eth.src" showname="Source: AsustekC_f6:97:3e (e0:cb:4e:f6:97:3e)" size="6" pos="6" show="e0:cb:4e:f6:97:3e" value="e0cb4ef6973e">
      <field name="eth.addr" showname="Address: AsustekC_f6:97:3e (e0:cb:4e:f6:97:3e)" size="6" pos="6" show="e0:cb:4e:f6:97:3e" value="e0cb4ef6973e"/>
      <field name="eth.lg" showname=".... ..0. .... .... .... .... = LG bit: Globally unique address (factory default)" size="3" pos="6" show="0" value="0" unmaskedvalue="e0cb4e"/>
      <field name="eth.ig" showname=".... ...0 .... .... .... .... = IG bit: Individual address (unicast)" size="3" pos="6" show="0" value="0" unmaskedvalue="e0cb4e"/>
    </field>
    <field name="eth.type" showname="Type: IP (0x0800)" size="2" pos="12" show="0x0800" value="0800"/>
  </proto>
  <proto name="ip" showname="Internet Protocol Version 4, Src: 132.246.11.229 (132.246.11.229), Dst: 10.48.1.195 (10.48.1.195)" size="20" pos="14">
    <field name="ip.version" showname="Version: 4" size="1" pos="14" show="4" value="45"/>
    <field name="ip.hdr_len" showname="Header length: 20 bytes" size="1" pos="14" show="20" value="45"/>
    <field name="ip.dsfield" showname="Differentiated Services Field: 0x00 (DSCP 0x00: Default; ECN: 0x00: Not-ECT (Not ECN-Capable Transport))" size="1" pos="15" show="0" value="00">
      <field name="ip.dsfield.dscp" showname="0000 00.. = Differentiated Services Codepoint: Default (0x00)" size="1" pos="15" show="0x00" value="0" unmaskedvalue="00"/>
      <field name="ip.dsfield.ecn" showname=".... ..00 = Explicit Congestion Notification: Not-ECT (Not ECN-Capable Transport) (0x00)" size="1" pos="15" show="0x00" value="0" unmaskedvalue="00"/>
    </field>
    <field name="ip.len" showname="Total Length: 76" size="2" pos="16" show="76" value="004c"/>
    <field name="ip.id" showname="Identification: 0x0000 (0)" size="2" pos="18" show="0x0000" value="0000"/>
    <field name="ip.flags" showname="Flags: 0x02 (Don&apos;t Fragment)" size="1" pos="20" show="0x02" value="40">
      <field name="ip.flags.rb" showname="0... .... = Reserved bit: Not set" size="1" pos="20" show="0" value="40"/>
      <field name="ip.flags.df" showname=".1.. .... = Don&apos;t fragment: Set" size="1" pos="20" show="1" value="40"/>
      <field name="ip.flags.mf" showname="..0. .... = More fragments: Not set" size="1" pos="20" show="0" value="40"/>
    </field>
    <field name="ip.frag_offset" showname="Fragment offset: 0" size="2" pos="20" show="0" value="4000"/>
    <field name="ip.ttl" showname="Time to live: 53" size="1" pos="22" show="53" value="35"/>
    <field name="ip.proto" showname="Protocol: UDP (17)" size="1" pos="23" show="17" value="11"/>
    <field name="ip.checksum" showname="Header checksum: 0xa8d3 [correct]" size="2" pos="24" show="0xa8d3" value="a8d3">
      <field name="ip.checksum_good" showname="Good: True" size="2" pos="24" show="1" value="a8d3"/>
      <field name="ip.checksum_bad" showname="Bad: False" size="2" pos="24" show="0" value="a8d3"/>
    </field>
    <field name="ip.src" showname="Source: 132.246.11.229 (132.246.11.229)" size="4" pos="26" show="132.246.11.229" value="84f60be5"/>
    <field name="ip.addr" showname="Source or Destination Address: 132.246.11.229 (132.246.11.229)" hide="yes" size="4" pos="26" show="132.246.11.229" value="84f60be5"/>
    <field name="ip.src_host" showname="Source Host: 132.246.11.229" hide="yes" size="4" pos="26" show="132.246.11.229" value="84f60be5"/>
    <field name="ip.host" showname="Source or Destination Host: 132.246.11.229" hide="yes" size="4" pos="26" show="132.246.11.229" value="84f60be5"/>
    <field name="ip.dst" showname="Destination: 10.48.1.195 (10.48.1.195)" size="4" pos="30" show="10.48.1.195" value="0a3001c3"/>
    <field name="ip.addr" showname="Source or Destination Address: 10.48.1.195 (10.48.1.195)" hide="yes" size="4" pos="30" show="10.48.1.195" value="0a3001c3"/>
    <field name="ip.dst_host" showname="Destination Host: 10.48.1.195" hide="yes" size="4" pos="30" show="10.48.1.195" value="0a3001c3"/>
    <field name="ip.host" showname="Source or Destination Host: 10.48.1.195" hide="yes" size="4" pos="30" show="10.48.1.195" value="0a3001c3"/>
    <field name="" show="Source GeoIP: Unknown" size="4" pos="26" value="84f60be5"/>
    <field name="" show="Destination GeoIP: Unknown" size="4" pos="30" value="0a3001c3"/>
  </proto>
  <proto name="udp" showname="User Datagram Protocol, Src Port: ntp (123), Dst Port: ntp (123)" size="8" pos="34">
    <field name="udp.srcport" showname="Source port: ntp (123)" size="2" pos="34" show="123" value="007b"/>
    <field name="udp.dstport" showname="Destination port: ntp (123)" size="2" pos="36" show="123" value="007b"/>
    <field name="udp.port" showname="Source or Destination Port: 123" hide="yes" size="2" pos="34" show="123" value="007b"/>
    <field name="udp.port" showname="Source or Destination Port: 123" hide="yes" size="2" pos="36" show="123" value="007b"/>
    <field name="udp.length" showname="Length: 56" size="2" pos="38" show="56" value="0038"/>
    <field name="udp.checksum_coverage" showname="Checksum coverage: 56" hide="yes" size="0" pos="38" show="56"/>
    <field name="udp.checksum" showname="Checksum: 0x4954 [validation disabled]" size="2" pos="40" show="0x4954" value="4954">
      <field name="udp.checksum_good" showname="Good Checksum: False" size="2" pos="40" show="0" value="4954"/>
      <field name="udp.checksum_bad" showname="Bad Checksum: False" size="2" pos="40" show="0" value="4954"/>
    </field>
  </proto>
  <proto name="ntp" showname="Network Time Protocol (NTP Version 4, server)" size="48" pos="42">
    <field name="ntp.flags" showname="Flags: 0x24" size="1" pos="42" show="0x24" value="24">
      <field name="ntp.flags.li" showname="00.. .... = Leap Indicator: no warning (0)" size="1" pos="42" show="0" value="0" unmaskedvalue="24"/>
      <field name="ntp.flags.vn" showname="..10 0... = Version number: NTP Version 4 (4)" size="1" pos="42" show="4" value="4" unmaskedvalue="24"/>
      <field name="ntp.flags.mode" showname=".... .100 = Mode: server (4)" size="1" pos="42" show="4" value="4" unmaskedvalue="24"/>
    </field>
    <field name="ntp.stratum" showname="Peer Clock Stratum: secondary reference (2)" size="1" pos="43" show="2" value="02"/>
    <field name="ntp.ppoll" showname="Peer Polling Interval: invalid (3)" size="1" pos="44" show="3" value="03"/>
    <field name="ntp.precision" showname="Peer Clock Precision: 0.000001 sec" size="1" pos="45" show="-20" value="ec"/>
    <field name="ntp.rootdelay" showname="Root Delay:    0.0001 sec" size="4" pos="46" show="0.0001373291015625" value="00000009"/>
    <field name="ntp.rootdispersion" showname="Root Dispersion:    0.0066 sec" size="4" pos="50" show="0.0066070556640625" value="000001b1"/>
    <field name="ntp.refid" showname="Reference ID: 132.246.11.233" size="4" pos="54" show="84:f6:0b:e9" value="84f60be9"/>
    <field name="ntp.reftime" showname="Reference Timestamp: Jan  4, 2014 00:29:38.525288000 UTC" size="8" pos="58" show="Jan  3, 2014 20:59:38.525288000" value="d671d47286795043"/>
    <field name="ntp.org" showname="Origin Timestamp: Jan  4, 2014 00:32:02.646636000 UTC" size="8" pos="66" show="Jan  3, 2014 21:02:02.646636000" value="d671d502a589f197"/>
    <field name="ntp.rec" showname="Receive Timestamp: Jan  4, 2014 00:32:01.782461000 UTC" size="8" pos="74" show="Jan  3, 2014 21:02:01.782461000" value="d671d501c84f6c82"/>
    <field name="ntp.xmt" showname="Transmit Timestamp: Jan  4, 2014 00:32:01.782490000 UTC" size="8" pos="82" show="Jan  3, 2014 21:02:01.782490000" value="d671d501c851459b"/>
  </proto>
</packet>

<packet>
  <proto name="geninfo" pos="0" showname="General information" size="90">
    <field name="num" pos="0" show="1547" showname="Number" value="60b" size="90"/>
    <field name="len" pos="0" show="90" showname="Frame Length" value="5a" size="90"/>
    <field name="caplen" pos="0" show="90" showname="Captured Length" value="5a" size="90"/>
    <field name="timestamp" pos="0" show="Jan  3, 2014 21:02:02.846680000 NST" showname="Captured Time" value="1388795522.846680000" size="90"/>
  </proto>
  <proto name="frame" showname="Frame 1547: 90 bytes on wire (720 bits), 90 bytes captured (720 bits) on interface 0" size="90" pos="0">
    <field name="frame.interface_id" showname="Interface id: 0" size="0" pos="0" show="0"/>
    <field name="frame.encap_type" showname="Encapsulation type: Ethernet (1)" size="0" pos="0" show="1"/>
    <field name="frame.time" showname="Arrival Time: Jan  3, 2014 21:02:02.846680000 NST" size="0" pos="0" show="Jan  3, 2014 21:02:02.846680000"/>
    <field name="frame.offset_shift" showname="Time shift for this packet: 0.000000000 seconds" size="0" pos="0" show="0.000000000"/>
    <field name="frame.time_epoch" showname="Epoch Time: 1388795522.846680000 seconds" size="0" pos="0" show="1388795522.846680000"/>
    <field name="frame.time_delta" showname="Time delta from previous captured frame: 0.143037000 seconds" size="0" pos="0" show="0.143037000"/>
    <field name="frame.time_delta_displayed" showname="Time delta from previous displayed frame: 0.143037000 seconds" size="0" pos="0" show="0.143037000"/>
    <field name="frame.time_relative" showname="Time since reference or first frame: 543.873740000 seconds" size="0" pos="0" show="543.873740000"/>
    <field name="frame.number" showname="Frame Number: 1547" size="0" pos="0" show="1547"/>
    <field name="frame.len" showname="Frame Length: 90 bytes (720 bits)" size="0" pos="0" show="90"/>
    <field name="frame.cap_len" showname="Capture Length: 90 bytes (720 bits)" size="0" pos="0" show="90"/>
    <field name="frame.marked" showname="Frame is marked: True" size="0" pos="0" show="1"/>
    <field name="frame.ignored" showname="Frame is ignored: False" size="0" pos="0" show="0"/>
    <field name="frame.protocols" showname="Protocols in frame: eth:ip:udp:ntp" size="0" pos="0" show="eth:ip:udp:ntp"/>
    <field name="frame.coloring_rule.name" showname="Coloring Rule Name: UDP" size="0" pos="0" show="UDP"/>
    <field name="frame.coloring_rule.string" showname="Coloring Rule String: udp" size="0" pos="0" show="udp"/>
  </proto>
  <proto name="eth" showname="Ethernet II, Src: Pegatron_2f:4d:48 (4c:72:b9:2f:4d:48), Dst: AsustekC_f6:97:3e (e0:cb:4e:f6:97:3e)" size="14" pos="0">
    <field name="eth.dst" showname="Destination: AsustekC_f6:97:3e (e0:cb:4e:f6:97:3e)" size="6" pos="0" show="e0:cb:4e:f6:97:3e" value="e0cb4ef6973e">
      <field name="eth.addr" showname="Address: AsustekC_f6:97:3e (e0:cb:4e:f6:97:3e)" size="6" pos="0" show="e0:cb:4e:f6:97:3e" value="e0cb4ef6973e"/>
      <field name="eth.lg" showname=".... ..0. .... .... .... .... = LG bit: Globally unique address (factory default)" size="3" pos="0" show="0" value="0" unmaskedvalue="e0cb4e"/>
      <field name="eth.ig" showname=".... ...0 .... .... .... .... = IG bit: Individual address (unicast)" size="3" pos="0" show="0" value="0" unmaskedvalue="e0cb4e"/>
    </field>
    <field name="eth.src" showname="Source: Pegatron_2f:4d:48 (4c:72:b9:2f:4d:48)" size="6" pos="6" show="4c:72:b9:2f:4d:48" value="4c72b92f4d48">
      <field name="eth.addr" showname="Address: Pegatron_2f:4d:48 (4c:72:b9:2f:4d:48)" size="6" pos="6" show="4c:72:b9:2f:4d:48" value="4c72b92f4d48"/>
      <field name="eth.lg" showname=".... ..0. .... .... .... .... = LG bit: Globally unique address (factory default)" size="3" pos="6" show="0" value="0" unmaskedvalue="4c72b9"/>
      <field name="eth.ig" showname=".... ...0 .... .... .... .... = IG bit: Individual address (unicast)" size="3" pos="6" show="0" value="0" unmaskedvalue="4c72b9"/>
    </field>
    <field name="eth.type" showname="Type: IP (0x0800)" size="2" pos="12" show="0x0800" value="0800"/>
  </proto>
  <proto name="ip" showname="Internet Protocol Version 4, Src: 10.48.1.195 (10.48.1.195), Dst: 132.246.11.228 (132.246.11.228)" size="20" pos="14">
    <field name="ip.version" showname="Version: 4" size="1" pos="14" show="4" value="45"/>
    <field name="ip.hdr_len" showname="Header length: 20 bytes" size="1" pos="14" show="20" value="45"/>
    <field name="ip.dsfield" showname="Differentiated Services Field: 0x00 (DSCP 0x00: Default; ECN: 0x00: Not-ECT (Not ECN-Capable Transport))" size="1" pos="15" show="0" value="00">
      <field name="ip.dsfield.dscp" showname="0000 00.. = Differentiated Services Codepoint: Default (0x00)" size="1" pos="15" show="0x00" value="0" unmaskedvalue="00"/>
      <field name="ip.dsfield.ecn" showname=".... ..00 = Explicit Congestion Notification: Not-ECT (Not ECN-Capable Transport) (0x00)" size="1" pos="15" show="0x00" value="0" unmaskedvalue="00"/>
    </field>
    <field name="ip.len" showname="Total Length: 76" size="2" pos="16" show="76" value="004c"/>
    <field name="ip.id" showname="Identification: 0x91d7 (37335)" size="2" pos="18" show="0x91d7" value="91d7"/>
    <field name="ip.flags" showname="Flags: 0x02 (Don&apos;t Fragment)" size="1" pos="20" show="0x02" value="40">
      <field name="ip.flags.rb" showname="0... .... = Reserved bit: Not set" size="1" pos="20" show="0" value="40"/>
      <field name="ip.flags.df" showname=".1.. .... = Don&apos;t fragment: Set" size="1" pos="20" show="1" value="40"/>
      <field name="ip.flags.mf" showname="..0. .... = More fragments: Not set" size="1" pos="20" show="0" value="40"/>
    </field>
    <field name="ip.frag_offset" showname="Fragment offset: 0" size="2" pos="20" show="0" value="4000"/>
    <field name="ip.ttl" showname="Time to live: 64" size="1" pos="22" show="64" value="40"/>
    <field name="ip.proto" showname="Protocol: UDP (17)" size="1" pos="23" show="17" value="11"/>
    <field name="ip.checksum" showname="Header checksum: 0x0bfd [correct]" size="2" pos="24" show="0x0bfd" value="0bfd">
      <field name="ip.checksum_good" showname="Good: True" size="2" pos="24" show="1" value="0bfd"/>
      <field name="ip.checksum_bad" showname="Bad: False" size="2" pos="24" show="0" value="0bfd"/>
    </field>
    <field name="ip.src" showname="Source: 10.48.1.195 (10.48.1.195)" size="4" pos="26" show="10.48.1.195" value="0a3001c3"/>
    <field name="ip.addr" showname="Source or Destination Address: 10.48.1.195 (10.48.1.195)" hide="yes" size="4" pos="26" show="10.48.1.195" value="0a3001c3"/>
    <field name="ip.src_host" showname="Source Host: 10.48.1.195" hide="yes" size="4" pos="26" show="10.48.1.195" value="0a3001c3"/>
    <field name="ip.host" showname="Source or Destination Host: 10.48.1.195" hide="yes" size="4" pos="26" show="10.48.1.195" value="0a3001c3"/>
    <field name="ip.dst" showname="Destination: 132.246.11.228 (132.246.11.228)" size="4" pos="30" show="132.246.11.228" value="84f60be4"/>
    <field name="ip.addr" showname="Source or Destination Address: 132.246.11.228 (132.246.11.228)" hide="yes" size="4" pos="30" show="132.246.11.228" value="84f60be4"/>
    <field name="ip.dst_host" showname="Destination Host: 132.246.11.228" hide="yes" size="4" pos="30" show="132.246.11.228" value="84f60be4"/>
    <field name="ip.host" showname="Source or Destination Host: 132.246.11.228" hide="yes" size="4" pos="30" show="132.246.11.228" value="84f60be4"/>
    <field name="" show="Source GeoIP: Unknown" size="4" pos="26" value="0a3001c3"/>
    <field name="" show="Destination GeoIP: Unknown" size="4" pos="30" value="84f60be4"/>
  </proto>
  <proto name="udp" showname="User Datagram Protocol, Src Port: ntp (123), Dst Port: ntp (123)" size="8" pos="34">
    <field name="udp.srcport" showname="Source port: ntp (123)" size="2" pos="34" show="123" value="007b"/>
    <field name="udp.dstport" showname="Destination port: ntp (123)" size="2" pos="36" show="123" value="007b"/>
    <field name="udp.port" showname="Source or Destination Port: 123" hide="yes" size="2" pos="34" show="123" value="007b"/>
    <field name="udp.port" showname="Source or Destination Port: 123" hide="yes" size="2" pos="36" show="123" value="007b"/>
    <field name="udp.length" showname="Length: 56" size="2" pos="38" show="56" value="0038"/>
    <field name="udp.checksum_coverage" showname="Checksum coverage: 56" hide="yes" size="0" pos="38" show="56"/>
    <field name="udp.checksum" showname="Checksum: 0xb94b [validation disabled]" size="2" pos="40" show="0xb94b" value="b94b">
      <field name="udp.checksum_good" showname="Good Checksum: False" size="2" pos="40" show="0" value="b94b"/>
      <field name="udp.checksum_bad" showname="Bad Checksum: False" size="2" pos="40" show="0" value="b94b"/>
    </field>
  </proto>
  <proto name="ntp" showname="Network Time Protocol (NTP Version 4, client)" size="48" pos="42">
    <field name="ntp.flags" showname="Flags: 0xe3" size="1" pos="42" show="0xe3" value="e3">
      <field name="ntp.flags.li" showname="11.. .... = Leap Indicator: unknown (clock unsynchronized) (3)" size="1" pos="42" show="3" value="3" unmaskedvalue="e3"/>
      <field name="ntp.flags.vn" showname="..10 0... = Version number: NTP Version 4 (4)" size="1" pos="42" show="4" value="4" unmaskedvalue="e3"/>
      <field name="ntp.flags.mode" showname=".... .011 = Mode: client (3)" size="1" pos="42" show="3" value="3" unmaskedvalue="e3"/>
    </field>
    <field name="ntp.stratum" showname="Peer Clock Stratum: unspecified or invalid (0)" size="1" pos="43" show="0" value="00"/>
    <field name="ntp.ppoll" showname="Peer Polling Interval: invalid (3)" size="1" pos="44" show="3" value="03"/>
    <field name="ntp.precision" showname="Peer Clock Precision: 0.015625 sec" size="1" pos="45" show="-6" value="fa"/>
    <field name="ntp.rootdelay" showname="Root Delay:    1.0000 sec" size="4" pos="46" show="1" value="00010000"/>
    <field name="ntp.rootdispersion" showname="Root Dispersion:    1.0000 sec" size="4" pos="50" show="1" value="00010000"/>
    <field name="ntp.refid" showname="Reference ID: NULL" size="4" pos="54" show="00:00:00:00" value="00000000"/>
    <field name="ntp.reftime" showname="Reference Timestamp: Jan  1, 1970 00:00:00.000000000 UTC" size="8" pos="58" show="Dec 31, 1969 20:30:00.000000000" value="0000000000000000"/>
    <field name="ntp.org" showname="Origin Timestamp: Jan  1, 1970 00:00:00.000000000 UTC" size="8" pos="66" show="Dec 31, 1969 20:30:00.000000000" value="0000000000000000"/>
    <field name="ntp.rec" showname="Receive Timestamp: Jan  1, 1970 00:00:00.000000000 UTC" size="8" pos="74" show="Dec 31, 1969 20:30:00.000000000" value="0000000000000000"/>
    <field name="ntp.xmt" showname="Transmit Timestamp: Jan  4, 2014 00:32:02.846637000 UTC" size="8" pos="82" show="Jan  3, 2014 21:02:02.846637000" value="d671d502d8bd3d40"/>
  </proto>
</packet>

<packet>
  <proto name="geninfo" pos="0" showname="General information" size="90">
    <field name="num" pos="0" show="1548" showname="Number" value="60c" size="90"/>
    <field name="len" pos="0" show="90" showname="Frame Length" value="5a" size="90"/>
    <field name="caplen" pos="0" show="90" showname="Captured Length" value="5a" size="90"/>
    <field name="timestamp" pos="0" show="Jan  3, 2014 21:02:02.902638000 NST" showname="Captured Time" value="1388795522.902638000" size="90"/>
  </proto>
  <proto name="frame" showname="Frame 1548: 90 bytes on wire (720 bits), 90 bytes captured (720 bits) on interface 0" size="90" pos="0">
    <field name="frame.interface_id" showname="Interface id: 0" size="0" pos="0" show="0"/>
    <field name="frame.encap_type" showname="Encapsulation type: Ethernet (1)" size="0" pos="0" show="1"/>
    <field name="frame.time" showname="Arrival Time: Jan  3, 2014 21:02:02.902638000 NST" size="0" pos="0" show="Jan  3, 2014 21:02:02.902638000"/>
    <field name="frame.offset_shift" showname="Time shift for this packet: 0.000000000 seconds" size="0" pos="0" show="0.000000000"/>
    <field name="frame.time_epoch" showname="Epoch Time: 1388795522.902638000 seconds" size="0" pos="0" show="1388795522.902638000"/>
    <field name="frame.time_delta" showname="Time delta from previous captured frame: 0.055958000 seconds" size="0" pos="0" show="0.055958000"/>
    <field name="frame.time_delta_displayed" showname="Time delta from previous displayed frame: 0.055958000 seconds" size="0" pos="0" show="0.055958000"/>
    <field name="frame.time_relative" showname="Time since reference or first frame: 543.929698000 seconds" size="0" pos="0" show="543.929698000"/>
    <field name="frame.number" showname="Frame Number: 1548" size="0" pos="0" show="1548"/>
    <field name="frame.len" showname="Frame Length: 90 bytes (720 bits)" size="0" pos="0" show="90"/>
    <field name="frame.cap_len" showname="Capture Length: 90 bytes (720 bits)" size="0" pos="0" show="90"/>
    <field name="frame.marked" showname="Frame is marked: True" size="0" pos="0" show="1"/>
    <field name="frame.ignored" showname="Frame is ignored: False" size="0" pos="0" show="0"/>
    <field name="frame.protocols" showname="Protocols in frame: eth:ip:udp:ntp" size="0" pos="0" show="eth:ip:udp:ntp"/>
    <field name="frame.coloring_rule.name" showname="Coloring Rule Name: UDP" size="0" pos="0" show="UDP"/>
    <field name="frame.coloring_rule.string" showname="Coloring Rule String: udp" size="0" pos="0" show="udp"/>
  </proto>
  <proto name="eth" showname="Ethernet II, Src: AsustekC_f6:97:3e (e0:cb:4e:f6:97:3e), Dst: Pegatron_2f:4d:48 (4c:72:b9:2f:4d:48)" size="14" pos="0">
    <field name="eth.dst" showname="Destination: Pegatron_2f:4d:48 (4c:72:b9:2f:4d:48)" size="6" pos="0" show="4c:72:b9:2f:4d:48" value="4c72b92f4d48">
      <field name="eth.addr" showname="Address: Pegatron_2f:4d:48 (4c:72:b9:2f:4d:48)" size="6" pos="0" show="4c:72:b9:2f:4d:48" value="4c72b92f4d48"/>
      <field name="eth.lg" showname=".... ..0. .... .... .... .... = LG bit: Globally unique address (factory default)" size="3" pos="0" show="0" value="0" unmaskedvalue="4c72b9"/>
      <field name="eth.ig" showname=".... ...0 .... .... .... .... = IG bit: Individual address (unicast)" size="3" pos="0" show="0" value="0" unmaskedvalue="4c72b9"/>
    </field>
    <field name="eth.src" showname="Source: AsustekC_f6:97:3e (e0:cb:4e:f6:97:3e)" size="6" pos="6" show="e0:cb:4e:f6:97:3e" value="e0cb4ef6973e">
      <field name="eth.addr" showname="Address: AsustekC_f6:97:3e (e0:cb:4e:f6:97:3e)" size="6" pos="6" show="e0:cb:4e:f6:97:3e" value="e0cb4ef6973e"/>
      <field name="eth.lg" showname=".... ..0. .... .... .... .... = LG bit: Globally unique address (factory default)" size="3" pos="6" show="0" value="0" unmaskedvalue="e0cb4e"/>
      <field name="eth.ig" showname=".... ...0 .... .... .... .... = IG bit: Individual address (unicast)" size="3" pos="6" show="0" value="0" unmaskedvalue="e0cb4e"/>
    </field>
    <field name="eth.type" showname="Type: IP (0x0800)" size="2" pos="12" show="0x0800" value="0800"/>
  </proto>
  <proto name="ip" showname="Internet Protocol Version 4, Src: 132.246.11.228 (132.246.11.228), Dst: 10.48.1.195 (10.48.1.195)" size="20" pos="14">
    <field name="ip.version" showname="Version: 4" size="1" pos="14" show="4" value="45"/>
    <field name="ip.hdr_len" showname="Header length: 20 bytes" size="1" pos="14" show="20" value="45"/>
    <field name="ip.dsfield" showname="Differentiated Services Field: 0x00 (DSCP 0x00: Default; ECN: 0x00: Not-ECT (Not ECN-Capable Transport))" size="1" pos="15" show="0" value="00">
      <field name="ip.dsfield.dscp" showname="0000 00.. = Differentiated Services Codepoint: Default (0x00)" size="1" pos="15" show="0x00" value="0" unmaskedvalue="00"/>
      <field name="ip.dsfield.ecn" showname=".... ..00 = Explicit Congestion Notification: Not-ECT (Not ECN-Capable Transport) (0x00)" size="1" pos="15" show="0x00" value="0" unmaskedvalue="00"/>
    </field>
    <field name="ip.len" showname="Total Length: 76" size="2" pos="16" show="76" value="004c"/>
    <field name="ip.id" showname="Identification: 0x0000 (0)" size="2" pos="18" show="0x0000" value="0000"/>
    <field name="ip.flags" showname="Flags: 0x02 (Don&apos;t Fragment)" size="1" pos="20" show="0x02" value="40">
      <field name="ip.flags.rb" showname="0... .... = Reserved bit: Not set" size="1" pos="20" show="0" value="40"/>
      <field name="ip.flags.df" showname=".1.. .... = Don&apos;t fragment: Set" size="1" pos="20" show="1" value="40"/>
      <field name="ip.flags.mf" showname="..0. .... = More fragments: Not set" size="1" pos="20" show="0" value="40"/>
    </field>
    <field name="ip.frag_offset" showname="Fragment offset: 0" size="2" pos="20" show="0" value="4000"/>
    <field name="ip.ttl" showname="Time to live: 53" size="1" pos="22" show="53" value="35"/>
    <field name="ip.proto" showname="Protocol: UDP (17)" size="1" pos="23" show="17" value="11"/>
    <field name="ip.checksum" showname="Header checksum: 0xa8d4 [correct]" size="2" pos="24" show="0xa8d4" value="a8d4">
      <field name="ip.checksum_good" showname="Good: True" size="2" pos="24" show="1" value="a8d4"/>
      <field name="ip.checksum_bad" showname="Bad: False" size="2" pos="24" show="0" value="a8d4"/>
    </field>
    <field name="ip.src" showname="Source: 132.246.11.228 (132.246.11.228)" size="4" pos="26" show="132.246.11.228" value="84f60be4"/>
    <field name="ip.addr" showname="Source or Destination Address: 132.246.11.228 (132.246.11.228)" hide="yes" size="4" pos="26" show="132.246.11.228" value="84f60be4"/>
    <field name="ip.src_host" showname="Source Host: 132.246.11.228" hide="yes" size="4" pos="26" show="132.246.11.228" value="84f60be4"/>
    <field name="ip.host" showname="Source or Destination Host: 132.246.11.228" hide="yes" size="4" pos="26" show="132.246.11.228" value="84f60be4"/>
    <field name="ip.dst" showname="Destination: 10.48.1.195 (10.48.1.195)" size="4" pos="30" show="10.48.1.195" value="0a3001c3"/>
    <field name="ip.addr" showname="Source or Destination Address: 10.48.1.195 (10.48.1.195)" hide="yes" size="4" pos="30" show="10.48.1.195" value="0a3001c3"/>
    <field name="ip.dst_host" showname="Destination Host: 10.48.1.195" hide="yes" size="4" pos="30" show="10.48.1.195" value="0a3001c3"/>
    <field name="ip.host" showname="Source or Destination Host: 10.48.1.195" hide="yes" size="4" pos="30" show="10.48.1.195" value="0a3001c3"/>
    <field name="" show="Source GeoIP: Unknown" size="4" pos="26" value="84f60be4"/>
    <field name="" show="Destination GeoIP: Unknown" size="4" pos="30" value="0a3001c3"/>
  </proto>
  <proto name="udp" showname="User Datagram Protocol, Src Port: ntp (123), Dst Port: ntp (123)" size="8" pos="34">
    <field name="udp.srcport" showname="Source port: ntp (123)" size="2" pos="34" show="123" value="007b"/>
    <field name="udp.dstport" showname="Destination port: ntp (123)" size="2" pos="36" show="123" value="007b"/>
    <field name="udp.port" showname="Source or Destination Port: 123" hide="yes" size="2" pos="34" show="123" value="007b"/>
    <field name="udp.port" showname="Source or Destination Port: 123" hide="yes" size="2" pos="36" show="123" value="007b"/>
    <field name="udp.length" showname="Length: 56" size="2" pos="38" show="56" value="0038"/>
    <field name="udp.checksum_coverage" showname="Checksum coverage: 56" hide="yes" size="0" pos="38" show="56"/>
    <field name="udp.checksum" showname="Checksum: 0xe9ad [validation disabled]" size="2" pos="40" show="0xe9ad" value="e9ad">
      <field name="udp.checksum_good" showname="Good Checksum: False" size="2" pos="40" show="0" value="e9ad"/>
      <field name="udp.checksum_bad" showname="Bad Checksum: False" size="2" pos="40" show="0" value="e9ad"/>
    </field>
  </proto>
  <proto name="ntp" showname="Network Time Protocol (NTP Version 4, server)" size="48" pos="42">
    <field name="ntp.flags" showname="Flags: 0x24" size="1" pos="42" show="0x24" value="24">
      <field name="ntp.flags.li" showname="00.. .... = Leap Indicator: no warning (0)" size="1" pos="42" show="0" value="0" unmaskedvalue="24"/>
      <field name="ntp.flags.vn" showname="..10 0... = Version number: NTP Version 4 (4)" size="1" pos="42" show="4" value="4" unmaskedvalue="24"/>
      <field name="ntp.flags.mode" showname=".... .100 = Mode: server (4)" size="1" pos="42" show="4" value="4" unmaskedvalue="24"/>
    </field>
    <field name="ntp.stratum" showname="Peer Clock Stratum: secondary reference (2)" size="1" pos="43" show="2" value="02"/>
    <field name="ntp.ppoll" showname="Peer Polling Interval: invalid (3)" size="1" pos="44" show="3" value="03"/>
    <field name="ntp.precision" showname="Peer Clock Precision: 0.000001 sec" size="1" pos="45" show="-20" value="ec"/>
    <field name="ntp.rootdelay" showname="Root Delay:    0.0001 sec" size="4" pos="46" show="0.0001068115234375" value="00000007"/>
    <field name="ntp.rootdispersion" showname="Root Dispersion:    0.0059 sec" size="4" pos="50" show="0.005889892578125" value="00000182"/>
    <field name="ntp.refid" showname="Reference ID: 132.246.11.231" size="4" pos="54" show="84:f6:0b:e7" value="84f60be7"/>
    <field name="ntp.reftime" showname="Reference Timestamp: Jan  4, 2014 00:31:26.312504000 UTC" size="8" pos="58" show="Jan  3, 2014 21:01:26.312504000" value="d671d4de50004fe9"/>
    <field name="ntp.org" showname="Origin Timestamp: Jan  4, 2014 00:32:02.846637000 UTC" size="8" pos="66" show="Jan  3, 2014 21:02:02.846637000" value="d671d502d8bd3d40"/>
    <field name="ntp.rec" showname="Receive Timestamp: Jan  4, 2014 00:32:01.980101000 UTC" size="8" pos="74" show="Jan  3, 2014 21:02:01.980101000" value="d671d501fae7f3a7"/>
    <field name="ntp.xmt" showname="Transmit Timestamp: Jan  4, 2014 00:32:01.980124000 UTC" size="8" pos="82" show="Jan  3, 2014 21:02:01.980124000" value="d671d501fae970aa"/>
  </proto>
</packet>

</pdml>
