<?xml version="1.0"?>
<?xml-stylesheet type="text/xsl" href="pdml2html.xsl"?>
<!-- You can find pdml2html.xsl in /usr/share/wireshark or at http://anonsvn.wireshark.org/trunk/wireshark/pdml2html.xsl. -->
<pdml version="0" creator="wireshark/1.10.2" time="Fri Jan  3 20:58:38 2014" capture_file="/tmp/wireshark_pcapng_eth0_20140103205250_3OR1j3">
<packet>
  <proto name="geninfo" pos="0" showname="General information" size="74">
    <field name="num" pos="0" show="188" showname="Number" value="bc" size="74"/>
    <field name="len" pos="0" show="74" showname="Frame Length" value="4a" size="74"/>
    <field name="caplen" pos="0" show="74" showname="Captured Length" value="4a" size="74"/>
    <field name="timestamp" pos="0" show="Jan  3, 2014 20:54:55.336137000 NST" showname="Captured Time" value="1388795095.336137000" size="74"/>
  </proto>
  <proto name="frame" showname="Frame 188: 74 bytes on wire (592 bits), 74 bytes captured (592 bits) on interface 0" size="74" pos="0">
    <field name="frame.interface_id" showname="Interface id: 0" size="0" pos="0" show="0"/>
    <field name="frame.encap_type" showname="Encapsulation type: Ethernet (1)" size="0" pos="0" show="1"/>
    <field name="frame.time" showname="Arrival Time: Jan  3, 2014 20:54:55.336137000 NST" size="0" pos="0" show="Jan  3, 2014 20:54:55.336137000"/>
    <field name="frame.offset_shift" showname="Time shift for this packet: 0.000000000 seconds" size="0" pos="0" show="0.000000000"/>
    <field name="frame.time_epoch" showname="Epoch Time: 1388795095.336137000 seconds" size="0" pos="0" show="1388795095.336137000"/>
    <field name="frame.time_delta" showname="Time delta from previous captured frame: 0.000282000 seconds" size="0" pos="0" show="0.000282000"/>
    <field name="frame.time_delta_displayed" showname="Time delta from previous displayed frame: 0.000000000 seconds" size="0" pos="0" show="0.000000000"/>
    <field name="frame.time_relative" showname="Time since reference or first frame: 116.363197000 seconds" size="0" pos="0" show="116.363197000"/>
    <field name="frame.number" showname="Frame Number: 188" size="0" pos="0" show="188"/>
    <field name="frame.len" showname="Frame Length: 74 bytes (592 bits)" size="0" pos="0" show="74"/>
    <field name="frame.cap_len" showname="Capture Length: 74 bytes (592 bits)" size="0" pos="0" show="74"/>
    <field name="frame.marked" showname="Frame is marked: True" size="0" pos="0" show="1"/>
    <field name="frame.ignored" showname="Frame is ignored: False" size="0" pos="0" show="0"/>
    <field name="frame.protocols" showname="Protocols in frame: eth:ip:tcp" size="0" pos="0" show="eth:ip:tcp"/>
    <field name="frame.coloring_rule.name" showname="Coloring Rule Name: HTTP" size="0" pos="0" show="HTTP"/>
    <field name="frame.coloring_rule.string" showname="Coloring Rule String: http || tcp.port == 80" size="0" pos="0" show="http || tcp.port == 80"/>
  </proto>
  <proto name="eth" showname="Ethernet II, Src: Pegatron_2f:4d:48 (4c:72:b9:2f:4d:48), Dst: AsustekC_f6:97:3e (e0:cb:4e:f6:97:3e)" size="14" pos="0">
    <field name="eth.dst" showname="Destination: AsustekC_f6:97:3e (e0:cb:4e:f6:97:3e)" size="6" pos="0" show="e0:cb:4e:f6:97:3e" value="e0cb4ef6973e">
      <field name="eth.addr" showname="Address: AsustekC_f6:97:3e (e0:cb:4e:f6:97:3e)" size="6" pos="0" show="e0:cb:4e:f6:97:3e" value="e0cb4ef6973e"/>
      <field name="eth.lg" showname=".... ..0. .... .... .... .... = LG bit: Globally unique address (factory default)" size="3" pos="0" show="0" value="0" unmaskedvalue="e0cb4e"/>
      <field name="eth.ig" showname=".... ...0 .... .... .... .... = IG bit: Individual address (unicast)" size="3" pos="0" show="0" value="0" unmaskedvalue="e0cb4e"/>
    </field>
    <field name="eth.src" showname="Source: Pegatron_2f:4d:48 (4c:72:b9:2f:4d:48)" size="6" pos="6" show="4c:72:b9:2f:4d:48" value="4c72b92f4d48">
      <field name="eth.addr" showname="Address: Pegatron_2f:4d:48 (4c:72:b9:2f:4d:48)" size="6" pos="6" show="4c:72:b9:2f:4d:48" value="4c72b92f4d48"/>
      <field name="eth.lg" showname=".... ..0. .... .... .... .... = LG bit: Globally unique address (factory default)" size="3" pos="6" show="0" value="0" unmaskedvalue="4c72b9"/>
      <field name="eth.ig" showname=".... ...0 .... .... .... .... = IG bit: Individual address (unicast)" size="3" pos="6" show="0" value="0" unmaskedvalue="4c72b9"/>
    </field>
    <field name="eth.type" showname="Type: IP (0x0800)" size="2" pos="12" show="0x0800" value="0800"/>
  </proto>
  <proto name="ip" showname="Internet Protocol Version 4, Src: 10.48.1.195 (10.48.1.195), Dst: 134.153.48.5 (134.153.48.5)" size="20" pos="14">
    <field name="ip.version" showname="Version: 4" size="1" pos="14" show="4" value="45"/>
    <field name="ip.hdr_len" showname="Header length: 20 bytes" size="1" pos="14" show="20" value="45"/>
    <field name="ip.dsfield" showname="Differentiated Services Field: 0x00 (DSCP 0x00: Default; ECN: 0x00: Not-ECT (Not ECN-Capable Transport))" size="1" pos="15" show="0" value="00">
      <field name="ip.dsfield.dscp" showname="0000 00.. = Differentiated Services Codepoint: Default (0x00)" size="1" pos="15" show="0x00" value="0" unmaskedvalue="00"/>
      <field name="ip.dsfield.ecn" showname=".... ..00 = Explicit Congestion Notification: Not-ECT (Not ECN-Capable Transport) (0x00)" size="1" pos="15" show="0x00" value="0" unmaskedvalue="00"/>
    </field>
    <field name="ip.len" showname="Total Length: 60" size="2" pos="16" show="60" value="003c"/>
    <field name="ip.id" showname="Identification: 0xb715 (46869)" size="2" pos="18" show="0xb715" value="b715"/>
    <field name="ip.flags" showname="Flags: 0x02 (Don&apos;t Fragment)" size="1" pos="20" show="0x02" value="40">
      <field name="ip.flags.rb" showname="0... .... = Reserved bit: Not set" size="1" pos="20" show="0" value="40"/>
      <field name="ip.flags.df" showname=".1.. .... = Don&apos;t fragment: Set" size="1" pos="20" show="1" value="40"/>
      <field name="ip.flags.mf" showname="..0. .... = More fragments: Not set" size="1" pos="20" show="0" value="40"/>
    </field>
    <field name="ip.frag_offset" showname="Fragment offset: 0" size="2" pos="20" show="0" value="4000"/>
    <field name="ip.ttl" showname="Time to live: 64" size="1" pos="22" show="64" value="40"/>
    <field name="ip.proto" showname="Protocol: TCP (6)" size="1" pos="23" show="6" value="06"/>
    <field name="ip.checksum" showname="Header checksum: 0xc115 [correct]" size="2" pos="24" show="0xc115" value="c115">
      <field name="ip.checksum_good" showname="Good: True" size="2" pos="24" show="1" value="c115"/>
      <field name="ip.checksum_bad" showname="Bad: False" size="2" pos="24" show="0" value="c115"/>
    </field>
    <field name="ip.src" showname="Source: 10.48.1.195 (10.48.1.195)" size="4" pos="26" show="10.48.1.195" value="0a3001c3"/>
    <field name="ip.addr" showname="Source or Destination Address: 10.48.1.195 (10.48.1.195)" hide="yes" size="4" pos="26" show="10.48.1.195" value="0a3001c3"/>
    <field name="ip.src_host" showname="Source Host: 10.48.1.195" hide="yes" size="4" pos="26" show="10.48.1.195" value="0a3001c3"/>
    <field name="ip.host" showname="Source or Destination Host: 10.48.1.195" hide="yes" size="4" pos="26" show="10.48.1.195" value="0a3001c3"/>
    <field name="ip.dst" showname="Destination: 134.153.48.5 (134.153.48.5)" size="4" pos="30" show="134.153.48.5" value="86993005"/>
    <field name="ip.addr" showname="Source or Destination Address: 134.153.48.5 (134.153.48.5)" hide="yes" size="4" pos="30" show="134.153.48.5" value="86993005"/>
    <field name="ip.dst_host" showname="Destination Host: 134.153.48.5" hide="yes" size="4" pos="30" show="134.153.48.5" value="86993005"/>
    <field name="ip.host" showname="Source or Destination Host: 134.153.48.5" hide="yes" size="4" pos="30" show="134.153.48.5" value="86993005"/>
    <field name="" show="Source GeoIP: Unknown" size="4" pos="26" value="0a3001c3"/>
    <field name="" show="Destination GeoIP: Unknown" size="4" pos="30" value="86993005"/>
  </proto>
  <proto name="tcp" showname="Transmission Control Protocol, Src Port: 51490 (51490), Dst Port: http (80), Seq: 0, Len: 0" size="40" pos="34">
    <field name="tcp.srcport" showname="Source port: 51490 (51490)" size="2" pos="34" show="51490" value="c922"/>
    <field name="tcp.dstport" showname="Destination port: http (80)" size="2" pos="36" show="80" value="0050"/>
    <field name="tcp.port" showname="Source or Destination Port: 51490" hide="yes" size="2" pos="34" show="51490" value="c922"/>
    <field name="tcp.port" showname="Source or Destination Port: 80" hide="yes" size="2" pos="36" show="80" value="0050"/>
    <field name="tcp.stream" showname="Stream index: 6" size="0" pos="34" show="6"/>
    <field name="tcp.len" showname="TCP Segment Len: 0" hide="yes" size="1" pos="46" show="0" value="a0"/>
    <field name="tcp.seq" showname="Sequence number: 0    (relative sequence number)" size="4" pos="38" show="0" value="138008ff"/>
    <field name="tcp.hdr_len" showname="Header length: 40 bytes" size="1" pos="46" show="40" value="a0"/>
    <field name="tcp.flags" showname="Flags: 0x002 (SYN)" size="2" pos="46" show="0x0002" value="2" unmaskedvalue="a002">
      <field name="tcp.flags.res" showname="000. .... .... = Reserved: Not set" size="1" pos="46" show="0" value="0" unmaskedvalue="a0"/>
      <field name="tcp.flags.ns" showname="...0 .... .... = Nonce: Not set" size="1" pos="46" show="0" value="0" unmaskedvalue="a0"/>
      <field name="tcp.flags.cwr" showname=".... 0... .... = Congestion Window Reduced (CWR): Not set" size="1" pos="47" show="0" value="0" unmaskedvalue="02"/>
      <field name="tcp.flags.ecn" showname=".... .0.. .... = ECN-Echo: Not set" size="1" pos="47" show="0" value="0" unmaskedvalue="02"/>
      <field name="tcp.flags.urg" showname=".... ..0. .... = Urgent: Not set" size="1" pos="47" show="0" value="0" unmaskedvalue="02"/>
      <field name="tcp.flags.ack" showname=".... ...0 .... = Acknowledgment: Not set" size="1" pos="47" show="0" value="0" unmaskedvalue="02"/>
      <field name="tcp.flags.push" showname=".... .... 0... = Push: Not set" size="1" pos="47" show="0" value="0" unmaskedvalue="02"/>
      <field name="tcp.flags.reset" showname=".... .... .0.. = Reset: Not set" size="1" pos="47" show="0" value="0" unmaskedvalue="02"/>
      <field name="tcp.flags.syn" showname=".... .... ..1. = Syn: Set" size="1" pos="47" show="1" value="1" unmaskedvalue="02">
        <field name="expert" showname="Expert Info (Chat/Sequence): Connection establish request (SYN): server port http" size="0" pos="47">
          <field name="expert.message" showname="Message: Connection establish request (SYN): server port http" size="0" pos="0" show="Connection establish request (SYN): server port http"/>
          <field name="expert.severity" showname="Severity level: Chat" size="0" pos="0" show="0x00200000"/>
          <field name="expert.group" showname="Group: Sequence" size="0" pos="0" show="0x02000000"/>
        </field>
      </field>
      <field name="tcp.flags.fin" showname=".... .... ...0 = Fin: Not set" size="1" pos="47" show="0" value="0" unmaskedvalue="02"/>
    </field>
    <field name="tcp.window_size_value" showname="Window size value: 29200" size="2" pos="48" show="29200" value="7210"/>
    <field name="tcp.window_size" showname="Calculated window size: 29200" size="2" pos="48" show="29200" value="7210"/>
    <field name="tcp.checksum" showname="Checksum: 0x6cdf [validation disabled]" size="2" pos="50" show="0x6cdf" value="6cdf">
      <field name="tcp.checksum_good" showname="Good Checksum: False" size="2" pos="50" show="0" value="6cdf"/>
      <field name="tcp.checksum_bad" showname="Bad Checksum: False" size="2" pos="50" show="0" value="6cdf"/>
    </field>
    <field name="tcp.options" showname="Options: (20 bytes), Maximum segment size, SACK permitted, Timestamps, No-Operation (NOP), Window scale" size="20" pos="54" show="02:04:05:b4:04:02:08:0a:00:a3:bf:ea:00:00:00:00:01:03:03:07" value="020405b40402080a00a3bfea0000000001030307">
      <field name="tcp.options.mss" showname="Maximum segment size: 1460 bytes" size="4" pos="54" show="" value="">
        <field name="tcp.option_kind" showname="Kind: MSS size (2)" size="1" pos="54" show="2" value="02"/>
        <field name="tcp.option_len" showname="Length: 4" size="1" pos="55" show="4" value="04"/>
        <field name="tcp.options.mss_val" showname="MSS Value: 1460" size="2" pos="56" show="1460" value="05b4"/>
      </field>
      <field name="tcp.options.sack_perm" showname="TCP SACK Permitted Option: True" size="2" pos="58" show="1" value="0402">
        <field name="tcp.option_kind" showname="Kind: SACK Permission (4)" size="1" pos="58" show="4" value="04"/>
        <field name="tcp.option_len" showname="Length: 2" size="1" pos="59" show="2" value="02"/>
      </field>
      <field name="" show="Timestamps: TSval 10731498, TSecr 0" size="10" pos="60" value="080a00a3bfea00000000">
        <field name="tcp.option_kind" showname="Kind: Timestamp (8)" size="1" pos="60" show="8" value="08"/>
        <field name="tcp.option_len" showname="Length: 10" size="1" pos="61" show="10" value="0a"/>
        <field name="tcp.options.timestamp.tsval" showname="Timestamp value: 10731498" size="4" pos="62" show="10731498" value="00a3bfea"/>
        <field name="tcp.options.timestamp.tsecr" showname="Timestamp echo reply: 0" size="4" pos="66" show="0" value="00000000"/>
      </field>
      <field name="" show="No-Operation (NOP)" size="1" pos="70" value="01">
        <field name="tcp.options.type" showname="Type: 1" size="1" pos="70" show="1" value="01">
          <field name="tcp.options.type.copy" showname="0... .... = Copy on fragmentation: No" size="1" pos="70" show="0" value="0" unmaskedvalue="01"/>
          <field name="tcp.options.type.class" showname=".00. .... = Class: Control (0)" size="1" pos="70" show="0" value="0" unmaskedvalue="01"/>
          <field name="tcp.options.type.number" showname="...0 0001 = Number: No-Operation (NOP) (1)" size="1" pos="70" show="1" value="1" unmaskedvalue="01"/>
        </field>
      </field>
      <field name="" show="Window scale: 7 (multiply by 128)" size="3" pos="71" value="030307">
        <field name="tcp.option_kind" showname="Kind: Window Scale (3)" size="1" pos="71" show="3" value="03"/>
        <field name="tcp.option_len" showname="Length: 3" size="1" pos="72" show="3" value="03"/>
        <field name="tcp.options.wscale.shift" showname="Shift count: 7" size="1" pos="73" show="7" value="07"/>
        <field name="tcp.options.wscale.multiplier" showname="Multiplier: 128" size="1" pos="73" show="128" value="07"/>
      </field>
    </field>
  </proto>
</packet>

<packet>
  <proto name="geninfo" pos="0" showname="General information" size="74">
    <field name="num" pos="0" show="190" showname="Number" value="be" size="74"/>
    <field name="len" pos="0" show="74" showname="Frame Length" value="4a" size="74"/>
    <field name="caplen" pos="0" show="74" showname="Captured Length" value="4a" size="74"/>
    <field name="timestamp" pos="0" show="Jan  3, 2014 20:54:55.341494000 NST" showname="Captured Time" value="1388795095.341494000" size="74"/>
  </proto>
  <proto name="frame" showname="Frame 190: 74 bytes on wire (592 bits), 74 bytes captured (592 bits) on interface 0" size="74" pos="0">
    <field name="frame.interface_id" showname="Interface id: 0" size="0" pos="0" show="0"/>
    <field name="frame.encap_type" showname="Encapsulation type: Ethernet (1)" size="0" pos="0" show="1"/>
    <field name="frame.time" showname="Arrival Time: Jan  3, 2014 20:54:55.341494000 NST" size="0" pos="0" show="Jan  3, 2014 20:54:55.341494000"/>
    <field name="frame.offset_shift" showname="Time shift for this packet: 0.000000000 seconds" size="0" pos="0" show="0.000000000"/>
    <field name="frame.time_epoch" showname="Epoch Time: 1388795095.341494000 seconds" size="0" pos="0" show="1388795095.341494000"/>
    <field name="frame.time_delta" showname="Time delta from previous captured frame: 0.005273000 seconds" size="0" pos="0" show="0.005273000"/>
    <field name="frame.time_delta_displayed" showname="Time delta from previous displayed frame: 0.005357000 seconds" size="0" pos="0" show="0.005357000"/>
    <field name="frame.time_relative" showname="Time since reference or first frame: 116.368554000 seconds" size="0" pos="0" show="116.368554000"/>
    <field name="frame.number" showname="Frame Number: 190" size="0" pos="0" show="190"/>
    <field name="frame.len" showname="Frame Length: 74 bytes (592 bits)" size="0" pos="0" show="74"/>
    <field name="frame.cap_len" showname="Capture Length: 74 bytes (592 bits)" size="0" pos="0" show="74"/>
    <field name="frame.marked" showname="Frame is marked: True" size="0" pos="0" show="1"/>
    <field name="frame.ignored" showname="Frame is ignored: False" size="0" pos="0" show="0"/>
    <field name="frame.protocols" showname="Protocols in frame: eth:ip:tcp" size="0" pos="0" show="eth:ip:tcp"/>
    <field name="frame.coloring_rule.name" showname="Coloring Rule Name: HTTP" size="0" pos="0" show="HTTP"/>
    <field name="frame.coloring_rule.string" showname="Coloring Rule String: http || tcp.port == 80" size="0" pos="0" show="http || tcp.port == 80"/>
  </proto>
  <proto name="eth" showname="Ethernet II, Src: AsustekC_f6:97:3e (e0:cb:4e:f6:97:3e), Dst: Pegatron_2f:4d:48 (4c:72:b9:2f:4d:48)" size="14" pos="0">
    <field name="eth.dst" showname="Destination: Pegatron_2f:4d:48 (4c:72:b9:2f:4d:48)" size="6" pos="0" show="4c:72:b9:2f:4d:48" value="4c72b92f4d48">
      <field name="eth.addr" showname="Address: Pegatron_2f:4d:48 (4c:72:b9:2f:4d:48)" size="6" pos="0" show="4c:72:b9:2f:4d:48" value="4c72b92f4d48"/>
      <field name="eth.lg" showname=".... ..0. .... .... .... .... = LG bit: Globally unique address (factory default)" size="3" pos="0" show="0" value="0" unmaskedvalue="4c72b9"/>
      <field name="eth.ig" showname=".... ...0 .... .... .... .... = IG bit: Individual address (unicast)" size="3" pos="0" show="0" value="0" unmaskedvalue="4c72b9"/>
    </field>
    <field name="eth.src" showname="Source: AsustekC_f6:97:3e (e0:cb:4e:f6:97:3e)" size="6" pos="6" show="e0:cb:4e:f6:97:3e" value="e0cb4ef6973e">
      <field name="eth.addr" showname="Address: AsustekC_f6:97:3e (e0:cb:4e:f6:97:3e)" size="6" pos="6" show="e0:cb:4e:f6:97:3e" value="e0cb4ef6973e"/>
      <field name="eth.lg" showname=".... ..0. .... .... .... .... = LG bit: Globally unique address (factory default)" size="3" pos="6" show="0" value="0" unmaskedvalue="e0cb4e"/>
      <field name="eth.ig" showname=".... ...0 .... .... .... .... = IG bit: Individual address (unicast)" size="3" pos="6" show="0" value="0" unmaskedvalue="e0cb4e"/>
    </field>
    <field name="eth.type" showname="Type: IP (0x0800)" size="2" pos="12" show="0x0800" value="0800"/>
  </proto>
  <proto name="ip" showname="Internet Protocol Version 4, Src: 134.153.48.5 (134.153.48.5), Dst: 10.48.1.195 (10.48.1.195)" size="20" pos="14">
    <field name="ip.version" showname="Version: 4" size="1" pos="14" show="4" value="45"/>
    <field name="ip.hdr_len" showname="Header length: 20 bytes" size="1" pos="14" show="20" value="45"/>
    <field name="ip.dsfield" showname="Differentiated Services Field: 0x00 (DSCP 0x00: Default; ECN: 0x00: Not-ECT (Not ECN-Capable Transport))" size="1" pos="15" show="0" value="00">
      <field name="ip.dsfield.dscp" showname="0000 00.. = Differentiated Services Codepoint: Default (0x00)" size="1" pos="15" show="0x00" value="0" unmaskedvalue="00"/>
      <field name="ip.dsfield.ecn" showname=".... ..00 = Explicit Congestion Notification: Not-ECT (Not ECN-Capable Transport) (0x00)" size="1" pos="15" show="0x00" value="0" unmaskedvalue="00"/>
    </field>
    <field name="ip.len" showname="Total Length: 60" size="2" pos="16" show="60" value="003c"/>
    <field name="ip.id" showname="Identification: 0x0000 (0)" size="2" pos="18" show="0x0000" value="0000"/>
    <field name="ip.flags" showname="Flags: 0x02 (Don&apos;t Fragment)" size="1" pos="20" show="0x02" value="40">
      <field name="ip.flags.rb" showname="0... .... = Reserved bit: Not set" size="1" pos="20" show="0" value="40"/>
      <field name="ip.flags.df" showname=".1.. .... = Don&apos;t fragment: Set" size="1" pos="20" show="1" value="40"/>
      <field name="ip.flags.mf" showname="..0. .... = More fragments: Not set" size="1" pos="20" show="0" value="40"/>
    </field>
    <field name="ip.frag_offset" showname="Fragment offset: 0" size="2" pos="20" show="0" value="4000"/>
    <field name="ip.ttl" showname="Time to live: 56" size="1" pos="22" show="56" value="38"/>
    <field name="ip.proto" showname="Protocol: TCP (6)" size="1" pos="23" show="6" value="06"/>
    <field name="ip.checksum" showname="Header checksum: 0x802b [correct]" size="2" pos="24" show="0x802b" value="802b">
      <field name="ip.checksum_good" showname="Good: True" size="2" pos="24" show="1" value="802b"/>
      <field name="ip.checksum_bad" showname="Bad: False" size="2" pos="24" show="0" value="802b"/>
    </field>
    <field name="ip.src" showname="Source: 134.153.48.5 (134.153.48.5)" size="4" pos="26" show="134.153.48.5" value="86993005"/>
    <field name="ip.addr" showname="Source or Destination Address: 134.153.48.5 (134.153.48.5)" hide="yes" size="4" pos="26" show="134.153.48.5" value="86993005"/>
    <field name="ip.src_host" showname="Source Host: 134.153.48.5" hide="yes" size="4" pos="26" show="134.153.48.5" value="86993005"/>
    <field name="ip.host" showname="Source or Destination Host: 134.153.48.5" hide="yes" size="4" pos="26" show="134.153.48.5" value="86993005"/>
    <field name="ip.dst" showname="Destination: 10.48.1.195 (10.48.1.195)" size="4" pos="30" show="10.48.1.195" value="0a3001c3"/>
    <field name="ip.addr" showname="Source or Destination Address: 10.48.1.195 (10.48.1.195)" hide="yes" size="4" pos="30" show="10.48.1.195" value="0a3001c3"/>
    <field name="ip.dst_host" showname="Destination Host: 10.48.1.195" hide="yes" size="4" pos="30" show="10.48.1.195" value="0a3001c3"/>
    <field name="ip.host" showname="Source or Destination Host: 10.48.1.195" hide="yes" size="4" pos="30" show="10.48.1.195" value="0a3001c3"/>
    <field name="" show="Source GeoIP: Unknown" size="4" pos="26" value="86993005"/>
    <field name="" show="Destination GeoIP: Unknown" size="4" pos="30" value="0a3001c3"/>
  </proto>
  <proto name="tcp" showname="Transmission Control Protocol, Src Port: http (80), Dst Port: 51490 (51490), Seq: 0, Ack: 1, Len: 0" size="40" pos="34">
    <field name="tcp.srcport" showname="Source port: http (80)" size="2" pos="34" show="80" value="0050"/>
    <field name="tcp.dstport" showname="Destination port: 51490 (51490)" size="2" pos="36" show="51490" value="c922"/>
    <field name="tcp.port" showname="Source or Destination Port: 80" hide="yes" size="2" pos="34" show="80" value="0050"/>
    <field name="tcp.port" showname="Source or Destination Port: 51490" hide="yes" size="2" pos="36" show="51490" value="c922"/>
    <field name="tcp.stream" showname="Stream index: 6" size="0" pos="34" show="6"/>
    <field name="tcp.len" showname="TCP Segment Len: 0" hide="yes" size="1" pos="46" show="0" value="a0"/>
    <field name="tcp.seq" showname="Sequence number: 0    (relative sequence number)" size="4" pos="38" show="0" value="28afbdab"/>
    <field name="tcp.ack" showname="Acknowledgment number: 1    (relative ack number)" size="4" pos="42" show="1" value="13800900"/>
    <field name="tcp.hdr_len" showname="Header length: 40 bytes" size="1" pos="46" show="40" value="a0"/>
    <field name="tcp.flags" showname="Flags: 0x012 (SYN, ACK)" size="2" pos="46" show="0x0012" value="12" unmaskedvalue="a012">
      <field name="tcp.flags.res" showname="000. .... .... = Reserved: Not set" size="1" pos="46" show="0" value="0" unmaskedvalue="a0"/>
      <field name="tcp.flags.ns" showname="...0 .... .... = Nonce: Not set" size="1" pos="46" show="0" value="0" unmaskedvalue="a0"/>
      <field name="tcp.flags.cwr" showname=".... 0... .... = Congestion Window Reduced (CWR): Not set" size="1" pos="47" show="0" value="0" unmaskedvalue="12"/>
      <field name="tcp.flags.ecn" showname=".... .0.. .... = ECN-Echo: Not set" size="1" pos="47" show="0" value="0" unmaskedvalue="12"/>
      <field name="tcp.flags.urg" showname=".... ..0. .... = Urgent: Not set" size="1" pos="47" show="0" value="0" unmaskedvalue="12"/>
      <field name="tcp.flags.ack" showname=".... ...1 .... = Acknowledgment: Set" size="1" pos="47" show="1" value="1" unmaskedvalue="12"/>
      <field name="tcp.flags.push" showname=".... .... 0... = Push: Not set" size="1" pos="47" show="0" value="0" unmaskedvalue="12"/>
      <field name="tcp.flags.reset" showname=".... .... .0.. = Reset: Not set" size="1" pos="47" show="0" value="0" unmaskedvalue="12"/>
      <field name="tcp.flags.syn" showname=".... .... ..1. = Syn: Set" size="1" pos="47" show="1" value="1" unmaskedvalue="12">
        <field name="expert" showname="Expert Info (Chat/Sequence): Connection establish acknowledge (SYN+ACK): server port http" size="0" pos="47">
          <field name="expert.message" showname="Message: Connection establish acknowledge (SYN+ACK): server port http" size="0" pos="0" show="Connection establish acknowledge (SYN+ACK): server port http"/>
          <field name="expert.severity" showname="Severity level: Chat" size="0" pos="0" show="0x00200000"/>
          <field name="expert.group" showname="Group: Sequence" size="0" pos="0" show="0x02000000"/>
        </field>
      </field>
      <field name="tcp.flags.fin" showname=".... .... ...0 = Fin: Not set" size="1" pos="47" show="0" value="0" unmaskedvalue="12"/>
    </field>
    <field name="tcp.window_size_value" showname="Window size value: 14480" size="2" pos="48" show="14480" value="3890"/>
    <field name="tcp.window_size" showname="Calculated window size: 14480" size="2" pos="48" show="14480" value="3890"/>
    <field name="tcp.checksum" showname="Checksum: 0xff19 [validation disabled]" size="2" pos="50" show="0xff19" value="ff19">
      <field name="tcp.checksum_good" showname="Good Checksum: False" size="2" pos="50" show="0" value="ff19"/>
      <field name="tcp.checksum_bad" showname="Bad Checksum: False" size="2" pos="50" show="0" value="ff19"/>
    </field>
    <field name="tcp.options" showname="Options: (20 bytes), Maximum segment size, SACK permitted, Timestamps, No-Operation (NOP), Window scale" size="20" pos="54" show="02:04:05:64:04:02:08:0a:4b:b7:75:72:00:a3:bf:ea:01:03:03:07" value="020405640402080a4bb7757200a3bfea01030307">
      <field name="tcp.options.mss" showname="Maximum segment size: 1380 bytes" size="4" pos="54" show="" value="">
        <field name="tcp.option_kind" showname="Kind: MSS size (2)" size="1" pos="54" show="2" value="02"/>
        <field name="tcp.option_len" showname="Length: 4" size="1" pos="55" show="4" value="04"/>
        <field name="tcp.options.mss_val" showname="MSS Value: 1380" size="2" pos="56" show="1380" value="0564"/>
      </field>
      <field name="tcp.options.sack_perm" showname="TCP SACK Permitted Option: True" size="2" pos="58" show="1" value="0402">
        <field name="tcp.option_kind" showname="Kind: SACK Permission (4)" size="1" pos="58" show="4" value="04"/>
        <field name="tcp.option_len" showname="Length: 2" size="1" pos="59" show="2" value="02"/>
      </field>
      <field name="" show="Timestamps: TSval 1270314354, TSecr 10731498" size="10" pos="60" value="080a4bb7757200a3bfea">
        <field name="tcp.option_kind" showname="Kind: Timestamp (8)" size="1" pos="60" show="8" value="08"/>
        <field name="tcp.option_len" showname="Length: 10" size="1" pos="61" show="10" value="0a"/>
        <field name="tcp.options.timestamp.tsval" showname="Timestamp value: 1270314354" size="4" pos="62" show="1270314354" value="4bb77572"/>
        <field name="tcp.options.timestamp.tsecr" showname="Timestamp echo reply: 10731498" size="4" pos="66" show="10731498" value="00a3bfea"/>
      </field>
      <field name="" show="No-Operation (NOP)" size="1" pos="70" value="01">
        <field name="tcp.options.type" showname="Type: 1" size="1" pos="70" show="1" value="01">
          <field name="tcp.options.type.copy" showname="0... .... = Copy on fragmentation: No" size="1" pos="70" show="0" value="0" unmaskedvalue="01"/>
          <field name="tcp.options.type.class" showname=".00. .... = Class: Control (0)" size="1" pos="70" show="0" value="0" unmaskedvalue="01"/>
          <field name="tcp.options.type.number" showname="...0 0001 = Number: No-Operation (NOP) (1)" size="1" pos="70" show="1" value="1" unmaskedvalue="01"/>
        </field>
      </field>
      <field name="" show="Window scale: 7 (multiply by 128)" size="3" pos="71" value="030307">
        <field name="tcp.option_kind" showname="Kind: Window Scale (3)" size="1" pos="71" show="3" value="03"/>
        <field name="tcp.option_len" showname="Length: 3" size="1" pos="72" show="3" value="03"/>
        <field name="tcp.options.wscale.shift" showname="Shift count: 7" size="1" pos="73" show="7" value="07"/>
        <field name="tcp.options.wscale.multiplier" showname="Multiplier: 128" size="1" pos="73" show="128" value="07"/>
      </field>
    </field>
    <field name="tcp.analysis" showname="SEQ/ACK analysis" size="0" pos="34" show="" value="">
      <field name="tcp.analysis.acks_frame" showname="This is an ACK to the segment in frame: 188" size="0" pos="34" show="188"/>
      <field name="tcp.analysis.ack_rtt" showname="The RTT to ACK the segment was: 0.005357000 seconds" size="0" pos="34" show="0.005357000"/>
    </field>
  </proto>
</packet>

<packet>
  <proto name="geninfo" pos="0" showname="General information" size="66">
    <field name="num" pos="0" show="191" showname="Number" value="bf" size="66"/>
    <field name="len" pos="0" show="66" showname="Frame Length" value="42" size="66"/>
    <field name="caplen" pos="0" show="66" showname="Captured Length" value="42" size="66"/>
    <field name="timestamp" pos="0" show="Jan  3, 2014 20:54:55.341550000 NST" showname="Captured Time" value="1388795095.341550000" size="66"/>
  </proto>
  <proto name="frame" showname="Frame 191: 66 bytes on wire (528 bits), 66 bytes captured (528 bits) on interface 0" size="66" pos="0">
    <field name="frame.interface_id" showname="Interface id: 0" size="0" pos="0" show="0"/>
    <field name="frame.encap_type" showname="Encapsulation type: Ethernet (1)" size="0" pos="0" show="1"/>
    <field name="frame.time" showname="Arrival Time: Jan  3, 2014 20:54:55.341550000 NST" size="0" pos="0" show="Jan  3, 2014 20:54:55.341550000"/>
    <field name="frame.offset_shift" showname="Time shift for this packet: 0.000000000 seconds" size="0" pos="0" show="0.000000000"/>
    <field name="frame.time_epoch" showname="Epoch Time: 1388795095.341550000 seconds" size="0" pos="0" show="1388795095.341550000"/>
    <field name="frame.time_delta" showname="Time delta from previous captured frame: 0.000056000 seconds" size="0" pos="0" show="0.000056000"/>
    <field name="frame.time_delta_displayed" showname="Time delta from previous displayed frame: 0.000056000 seconds" size="0" pos="0" show="0.000056000"/>
    <field name="frame.time_relative" showname="Time since reference or first frame: 116.368610000 seconds" size="0" pos="0" show="116.368610000"/>
    <field name="frame.number" showname="Frame Number: 191" size="0" pos="0" show="191"/>
    <field name="frame.len" showname="Frame Length: 66 bytes (528 bits)" size="0" pos="0" show="66"/>
    <field name="frame.cap_len" showname="Capture Length: 66 bytes (528 bits)" size="0" pos="0" show="66"/>
    <field name="frame.marked" showname="Frame is marked: True" size="0" pos="0" show="1"/>
    <field name="frame.ignored" showname="Frame is ignored: False" size="0" pos="0" show="0"/>
    <field name="frame.protocols" showname="Protocols in frame: eth:ip:tcp" size="0" pos="0" show="eth:ip:tcp"/>
    <field name="frame.coloring_rule.name" showname="Coloring Rule Name: HTTP" size="0" pos="0" show="HTTP"/>
    <field name="frame.coloring_rule.string" showname="Coloring Rule String: http || tcp.port == 80" size="0" pos="0" show="http || tcp.port == 80"/>
  </proto>
  <proto name="eth" showname="Ethernet II, Src: Pegatron_2f:4d:48 (4c:72:b9:2f:4d:48), Dst: AsustekC_f6:97:3e (e0:cb:4e:f6:97:3e)" size="14" pos="0">
    <field name="eth.dst" showname="Destination: AsustekC_f6:97:3e (e0:cb:4e:f6:97:3e)" size="6" pos="0" show="e0:cb:4e:f6:97:3e" value="e0cb4ef6973e">
      <field name="eth.addr" showname="Address: AsustekC_f6:97:3e (e0:cb:4e:f6:97:3e)" size="6" pos="0" show="e0:cb:4e:f6:97:3e" value="e0cb4ef6973e"/>
      <field name="eth.lg" showname=".... ..0. .... .... .... .... = LG bit: Globally unique address (factory default)" size="3" pos="0" show="0" value="0" unmaskedvalue="e0cb4e"/>
      <field name="eth.ig" showname=".... ...0 .... .... .... .... = IG bit: Individual address (unicast)" size="3" pos="0" show="0" value="0" unmaskedvalue="e0cb4e"/>
    </field>
    <field name="eth.src" showname="Source: Pegatron_2f:4d:48 (4c:72:b9:2f:4d:48)" size="6" pos="6" show="4c:72:b9:2f:4d:48" value="4c72b92f4d48">
      <field name="eth.addr" showname="Address: Pegatron_2f:4d:48 (4c:72:b9:2f:4d:48)" size="6" pos="6" show="4c:72:b9:2f:4d:48" value="4c72b92f4d48"/>
      <field name="eth.lg" showname=".... ..0. .... .... .... .... = LG bit: Globally unique address (factory default)" size="3" pos="6" show="0" value="0" unmaskedvalue="4c72b9"/>
      <field name="eth.ig" showname=".... ...0 .... .... .... .... = IG bit: Individual address (unicast)" size="3" pos="6" show="0" value="0" unmaskedvalue="4c72b9"/>
    </field>
    <field name="eth.type" showname="Type: IP (0x0800)" size="2" pos="12" show="0x0800" value="0800"/>
  </proto>
  <proto name="ip" showname="Internet Protocol Version 4, Src: 10.48.1.195 (10.48.1.195), Dst: 134.153.48.5 (134.153.48.5)" size="20" pos="14">
    <field name="ip.version" showname="Version: 4" size="1" pos="14" show="4" value="45"/>
    <field name="ip.hdr_len" showname="Header length: 20 bytes" size="1" pos="14" show="20" value="45"/>
    <field name="ip.dsfield" showname="Differentiated Services Field: 0x00 (DSCP 0x00: Default; ECN: 0x00: Not-ECT (Not ECN-Capable Transport))" size="1" pos="15" show="0" value="00">
      <field name="ip.dsfield.dscp" showname="0000 00.. = Differentiated Services Codepoint: Default (0x00)" size="1" pos="15" show="0x00" value="0" unmaskedvalue="00"/>
      <field name="ip.dsfield.ecn" showname=".... ..00 = Explicit Congestion Notification: Not-ECT (Not ECN-Capable Transport) (0x00)" size="1" pos="15" show="0x00" value="0" unmaskedvalue="00"/>
    </field>
    <field name="ip.len" showname="Total Length: 52" size="2" pos="16" show="52" value="0034"/>
    <field name="ip.id" showname="Identification: 0xb716 (46870)" size="2" pos="18" show="0xb716" value="b716"/>
    <field name="ip.flags" showname="Flags: 0x02 (Don&apos;t Fragment)" size="1" pos="20" show="0x02" value="40">
      <field name="ip.flags.rb" showname="0... .... = Reserved bit: Not set" size="1" pos="20" show="0" value="40"/>
      <field name="ip.flags.df" showname=".1.. .... = Don&apos;t fragment: Set" size="1" pos="20" show="1" value="40"/>
      <field name="ip.flags.mf" showname="..0. .... = More fragments: Not set" size="1" pos="20" show="0" value="40"/>
    </field>
    <field name="ip.frag_offset" showname="Fragment offset: 0" size="2" pos="20" show="0" value="4000"/>
    <field name="ip.ttl" showname="Time to live: 64" size="1" pos="22" show="64" value="40"/>
    <field name="ip.proto" showname="Protocol: TCP (6)" size="1" pos="23" show="6" value="06"/>
    <field name="ip.checksum" showname="Header checksum: 0xc11c [correct]" size="2" pos="24" show="0xc11c" value="c11c">
      <field name="ip.checksum_good" showname="Good: True" size="2" pos="24" show="1" value="c11c"/>
      <field name="ip.checksum_bad" showname="Bad: False" size="2" pos="24" show="0" value="c11c"/>
    </field>
    <field name="ip.src" showname="Source: 10.48.1.195 (10.48.1.195)" size="4" pos="26" show="10.48.1.195" value="0a3001c3"/>
    <field name="ip.addr" showname="Source or Destination Address: 10.48.1.195 (10.48.1.195)" hide="yes" size="4" pos="26" show="10.48.1.195" value="0a3001c3"/>
    <field name="ip.src_host" showname="Source Host: 10.48.1.195" hide="yes" size="4" pos="26" show="10.48.1.195" value="0a3001c3"/>
    <field name="ip.host" showname="Source or Destination Host: 10.48.1.195" hide="yes" size="4" pos="26" show="10.48.1.195" value="0a3001c3"/>
    <field name="ip.dst" showname="Destination: 134.153.48.5 (134.153.48.5)" size="4" pos="30" show="134.153.48.5" value="86993005"/>
    <field name="ip.addr" showname="Source or Destination Address: 134.153.48.5 (134.153.48.5)" hide="yes" size="4" pos="30" show="134.153.48.5" value="86993005"/>
    <field name="ip.dst_host" showname="Destination Host: 134.153.48.5" hide="yes" size="4" pos="30" show="134.153.48.5" value="86993005"/>
    <field name="ip.host" showname="Source or Destination Host: 134.153.48.5" hide="yes" size="4" pos="30" show="134.153.48.5" value="86993005"/>
    <field name="" show="Source GeoIP: Unknown" size="4" pos="26" value="0a3001c3"/>
    <field name="" show="Destination GeoIP: Unknown" size="4" pos="30" value="86993005"/>
  </proto>
  <proto name="tcp" showname="Transmission Control Protocol, Src Port: 51490 (51490), Dst Port: http (80), Seq: 1, Ack: 1, Len: 0" size="32" pos="34">
    <field name="tcp.srcport" showname="Source port: 51490 (51490)" size="2" pos="34" show="51490" value="c922"/>
    <field name="tcp.dstport" showname="Destination port: http (80)" size="2" pos="36" show="80" value="0050"/>
    <field name="tcp.port" showname="Source or Destination Port: 51490" hide="yes" size="2" pos="34" show="51490" value="c922"/>
    <field name="tcp.port" showname="Source or Destination Port: 80" hide="yes" size="2" pos="36" show="80" value="0050"/>
    <field name="tcp.stream" showname="Stream index: 6" size="0" pos="34" show="6"/>
    <field name="tcp.len" showname="TCP Segment Len: 0" hide="yes" size="1" pos="46" show="0" value="80"/>
    <field name="tcp.seq" showname="Sequence number: 1    (relative sequence number)" size="4" pos="38" show="1" value="13800900"/>
    <field name="tcp.ack" showname="Acknowledgment number: 1    (relative ack number)" size="4" pos="42" show="1" value="28afbdac"/>
    <field name="tcp.hdr_len" showname="Header length: 32 bytes" size="1" pos="46" show="32" value="80"/>
    <field name="tcp.flags" showname="Flags: 0x010 (ACK)" size="2" pos="46" show="0x0010" value="10" unmaskedvalue="8010">
      <field name="tcp.flags.res" showname="000. .... .... = Reserved: Not set" size="1" pos="46" show="0" value="0" unmaskedvalue="80"/>
      <field name="tcp.flags.ns" showname="...0 .... .... = Nonce: Not set" size="1" pos="46" show="0" value="0" unmaskedvalue="80"/>
      <field name="tcp.flags.cwr" showname=".... 0... .... = Congestion Window Reduced (CWR): Not set" size="1" pos="47" show="0" value="0" unmaskedvalue="10"/>
      <field name="tcp.flags.ecn" showname=".... .0.. .... = ECN-Echo: Not set" size="1" pos="47" show="0" value="0" unmaskedvalue="10"/>
      <field name="tcp.flags.urg" showname=".... ..0. .... = Urgent: Not set" size="1" pos="47" show="0" value="0" unmaskedvalue="10"/>
      <field name="tcp.flags.ack" showname=".... ...1 .... = Acknowledgment: Set" size="1" pos="47" show="1" value="1" unmaskedvalue="10"/>
      <field name="tcp.flags.push" showname=".... .... 0... = Push: Not set" size="1" pos="47" show="0" value="0" unmaskedvalue="10"/>
      <field name="tcp.flags.reset" showname=".... .... .0.. = Reset: Not set" size="1" pos="47" show="0" value="0" unmaskedvalue="10"/>
      <field name="tcp.flags.syn" showname=".... .... ..0. = Syn: Not set" size="1" pos="47" show="0" value="0" unmaskedvalue="10"/>
      <field name="tcp.flags.fin" showname=".... .... ...0 = Fin: Not set" size="1" pos="47" show="0" value="0" unmaskedvalue="10"/>
    </field>
    <field name="tcp.window_size_value" showname="Window size value: 229" size="2" pos="48" show="229" value="00e5"/>
    <field name="tcp.window_size" showname="Calculated window size: 29312" size="2" pos="48" show="29312" value="00e5"/>
    <field name="tcp.window_size_scalefactor" showname="Window size scaling factor: 128" size="2" pos="48" show="128" value="00e5"/>
    <field name="tcp.checksum" showname="Checksum: 0x6540 [validation disabled]" size="2" pos="50" show="0x6540" value="6540">
      <field name="tcp.checksum_good" showname="Good Checksum: False" size="2" pos="50" show="0" value="6540"/>
      <field name="tcp.checksum_bad" showname="Bad Checksum: False" size="2" pos="50" show="0" value="6540"/>
    </field>
    <field name="tcp.options" showname="Options: (12 bytes), No-Operation (NOP), No-Operation (NOP), Timestamps" size="12" pos="54" show="01:01:08:0a:00:a3:bf:eb:4b:b7:75:72" value="0101080a00a3bfeb4bb77572">
      <field name="" show="No-Operation (NOP)" size="1" pos="54" value="01">
        <field name="tcp.options.type" showname="Type: 1" size="1" pos="54" show="1" value="01">
          <field name="tcp.options.type.copy" showname="0... .... = Copy on fragmentation: No" size="1" pos="54" show="0" value="0" unmaskedvalue="01"/>
          <field name="tcp.options.type.class" showname=".00. .... = Class: Control (0)" size="1" pos="54" show="0" value="0" unmaskedvalue="01"/>
          <field name="tcp.options.type.number" showname="...0 0001 = Number: No-Operation (NOP) (1)" size="1" pos="54" show="1" value="1" unmaskedvalue="01"/>
        </field>
      </field>
      <field name="" show="No-Operation (NOP)" size="1" pos="55" value="01">
        <field name="tcp.options.type" showname="Type: 1" size="1" pos="55" show="1" value="01">
          <field name="tcp.options.type.copy" showname="0... .... = Copy on fragmentation: No" size="1" pos="55" show="0" value="0" unmaskedvalue="01"/>
          <field name="tcp.options.type.class" showname=".00. .... = Class: Control (0)" size="1" pos="55" show="0" value="0" unmaskedvalue="01"/>
          <field name="tcp.options.type.number" showname="...0 0001 = Number: No-Operation (NOP) (1)" size="1" pos="55" show="1" value="1" unmaskedvalue="01"/>
        </field>
      </field>
      <field name="" show="Timestamps: TSval 10731499, TSecr 1270314354" size="10" pos="56" value="080a00a3bfeb4bb77572">
        <field name="tcp.option_kind" showname="Kind: Timestamp (8)" size="1" pos="56" show="8" value="08"/>
        <field name="tcp.option_len" showname="Length: 10" size="1" pos="57" show="10" value="0a"/>
        <field name="tcp.options.timestamp.tsval" showname="Timestamp value: 10731499" size="4" pos="58" show="10731499" value="00a3bfeb"/>
        <field name="tcp.options.timestamp.tsecr" showname="Timestamp echo reply: 1270314354" size="4" pos="62" show="1270314354" value="4bb77572"/>
      </field>
    </field>
    <field name="tcp.analysis" showname="SEQ/ACK analysis" size="0" pos="34" show="" value="">
      <field name="tcp.analysis.acks_frame" showname="This is an ACK to the segment in frame: 190" size="0" pos="34" show="190"/>
      <field name="tcp.analysis.ack_rtt" showname="The RTT to ACK the segment was: 0.000056000 seconds" size="0" pos="34" show="0.000056000"/>
    </field>
  </proto>
</packet>

<packet>
  <proto name="geninfo" pos="0" showname="General information" size="519">
    <field name="num" pos="0" show="194" showname="Number" value="c2" size="519"/>
    <field name="len" pos="0" show="519" showname="Frame Length" value="207" size="519"/>
    <field name="caplen" pos="0" show="519" showname="Captured Length" value="207" size="519"/>
    <field name="timestamp" pos="0" show="Jan  3, 2014 20:54:55.359355000 NST" showname="Captured Time" value="1388795095.359355000" size="519"/>
  </proto>
  <proto name="frame" showname="Frame 194: 519 bytes on wire (4152 bits), 519 bytes captured (4152 bits) on interface 0" size="519" pos="0">
    <field name="frame.interface_id" showname="Interface id: 0" size="0" pos="0" show="0"/>
    <field name="frame.encap_type" showname="Encapsulation type: Ethernet (1)" size="0" pos="0" show="1"/>
    <field name="frame.time" showname="Arrival Time: Jan  3, 2014 20:54:55.359355000 NST" size="0" pos="0" show="Jan  3, 2014 20:54:55.359355000"/>
    <field name="frame.offset_shift" showname="Time shift for this packet: 0.000000000 seconds" size="0" pos="0" show="0.000000000"/>
    <field name="frame.time_epoch" showname="Epoch Time: 1388795095.359355000 seconds" size="0" pos="0" show="1388795095.359355000"/>
    <field name="frame.time_delta" showname="Time delta from previous captured frame: 0.017752000 seconds" size="0" pos="0" show="0.017752000"/>
    <field name="frame.time_delta_displayed" showname="Time delta from previous displayed frame: 0.017805000 seconds" size="0" pos="0" show="0.017805000"/>
    <field name="frame.time_relative" showname="Time since reference or first frame: 116.386415000 seconds" size="0" pos="0" show="116.386415000"/>
    <field name="frame.number" showname="Frame Number: 194" size="0" pos="0" show="194"/>
    <field name="frame.len" showname="Frame Length: 519 bytes (4152 bits)" size="0" pos="0" show="519"/>
    <field name="frame.cap_len" showname="Capture Length: 519 bytes (4152 bits)" size="0" pos="0" show="519"/>
    <field name="frame.marked" showname="Frame is marked: True" size="0" pos="0" show="1"/>
    <field name="frame.ignored" showname="Frame is ignored: False" size="0" pos="0" show="0"/>
    <field name="frame.protocols" showname="Protocols in frame: eth:ip:tcp:http" size="0" pos="0" show="eth:ip:tcp:http"/>
    <field name="frame.p_prot_data" showname="Number of per-protocol-data: 1" size="0" pos="0" show="1"/>
    <field name="" show="[Hypertext Transfer Protocol, key 0]" size="0" pos="0" value=""/>
    <field name="frame.coloring_rule.name" showname="Coloring Rule Name: HTTP" size="0" pos="0" show="HTTP"/>
    <field name="frame.coloring_rule.string" showname="Coloring Rule String: http || tcp.port == 80" size="0" pos="0" show="http || tcp.port == 80"/>
  </proto>
  <proto name="eth" showname="Ethernet II, Src: Pegatron_2f:4d:48 (4c:72:b9:2f:4d:48), Dst: AsustekC_f6:97:3e (e0:cb:4e:f6:97:3e)" size="14" pos="0">
    <field name="eth.dst" showname="Destination: AsustekC_f6:97:3e (e0:cb:4e:f6:97:3e)" size="6" pos="0" show="e0:cb:4e:f6:97:3e" value="e0cb4ef6973e">
      <field name="eth.addr" showname="Address: AsustekC_f6:97:3e (e0:cb:4e:f6:97:3e)" size="6" pos="0" show="e0:cb:4e:f6:97:3e" value="e0cb4ef6973e"/>
      <field name="eth.lg" showname=".... ..0. .... .... .... .... = LG bit: Globally unique address (factory default)" size="3" pos="0" show="0" value="0" unmaskedvalue="e0cb4e"/>
      <field name="eth.ig" showname=".... ...0 .... .... .... .... = IG bit: Individual address (unicast)" size="3" pos="0" show="0" value="0" unmaskedvalue="e0cb4e"/>
    </field>
    <field name="eth.src" showname="Source: Pegatron_2f:4d:48 (4c:72:b9:2f:4d:48)" size="6" pos="6" show="4c:72:b9:2f:4d:48" value="4c72b92f4d48">
      <field name="eth.addr" showname="Address: Pegatron_2f:4d:48 (4c:72:b9:2f:4d:48)" size="6" pos="6" show="4c:72:b9:2f:4d:48" value="4c72b92f4d48"/>
      <field name="eth.lg" showname=".... ..0. .... .... .... .... = LG bit: Globally unique address (factory default)" size="3" pos="6" show="0" value="0" unmaskedvalue="4c72b9"/>
      <field name="eth.ig" showname=".... ...0 .... .... .... .... = IG bit: Individual address (unicast)" size="3" pos="6" show="0" value="0" unmaskedvalue="4c72b9"/>
    </field>
    <field name="eth.type" showname="Type: IP (0x0800)" size="2" pos="12" show="0x0800" value="0800"/>
  </proto>
  <proto name="ip" showname="Internet Protocol Version 4, Src: 10.48.1.195 (10.48.1.195), Dst: 134.153.48.5 (134.153.48.5)" size="20" pos="14">
    <field name="ip.version" showname="Version: 4" size="1" pos="14" show="4" value="45"/>
    <field name="ip.hdr_len" showname="Header length: 20 bytes" size="1" pos="14" show="20" value="45"/>
    <field name="ip.dsfield" showname="Differentiated Services Field: 0x00 (DSCP 0x00: Default; ECN: 0x00: Not-ECT (Not ECN-Capable Transport))" size="1" pos="15" show="0" value="00">
      <field name="ip.dsfield.dscp" showname="0000 00.. = Differentiated Services Codepoint: Default (0x00)" size="1" pos="15" show="0x00" value="0" unmaskedvalue="00"/>
      <field name="ip.dsfield.ecn" showname=".... ..00 = Explicit Congestion Notification: Not-ECT (Not ECN-Capable Transport) (0x00)" size="1" pos="15" show="0x00" value="0" unmaskedvalue="00"/>
    </field>
    <field name="ip.len" showname="Total Length: 505" size="2" pos="16" show="505" value="01f9"/>
    <field name="ip.id" showname="Identification: 0xb717 (46871)" size="2" pos="18" show="0xb717" value="b717"/>
    <field name="ip.flags" showname="Flags: 0x02 (Don&apos;t Fragment)" size="1" pos="20" show="0x02" value="40">
      <field name="ip.flags.rb" showname="0... .... = Reserved bit: Not set" size="1" pos="20" show="0" value="40"/>
      <field name="ip.flags.df" showname=".1.. .... = Don&apos;t fragment: Set" size="1" pos="20" show="1" value="40"/>
      <field name="ip.flags.mf" showname="..0. .... = More fragments: Not set" size="1" pos="20" show="0" value="40"/>
    </field>
    <field name="ip.frag_offset" showname="Fragment offset: 0" size="2" pos="20" show="0" value="4000"/>
    <field name="ip.ttl" showname="Time to live: 64" size="1" pos="22" show="64" value="40"/>
    <field name="ip.proto" showname="Protocol: TCP (6)" size="1" pos="23" show="6" value="06"/>
    <field name="ip.checksum" showname="Header checksum: 0xbf56 [correct]" size="2" pos="24" show="0xbf56" value="bf56">
      <field name="ip.checksum_good" showname="Good: True" size="2" pos="24" show="1" value="bf56"/>
      <field name="ip.checksum_bad" showname="Bad: False" size="2" pos="24" show="0" value="bf56"/>
    </field>
    <field name="ip.src" showname="Source: 10.48.1.195 (10.48.1.195)" size="4" pos="26" show="10.48.1.195" value="0a3001c3"/>
    <field name="ip.addr" showname="Source or Destination Address: 10.48.1.195 (10.48.1.195)" hide="yes" size="4" pos="26" show="10.48.1.195" value="0a3001c3"/>
    <field name="ip.src_host" showname="Source Host: 10.48.1.195" hide="yes" size="4" pos="26" show="10.48.1.195" value="0a3001c3"/>
    <field name="ip.host" showname="Source or Destination Host: 10.48.1.195" hide="yes" size="4" pos="26" show="10.48.1.195" value="0a3001c3"/>
    <field name="ip.dst" showname="Destination: 134.153.48.5 (134.153.48.5)" size="4" pos="30" show="134.153.48.5" value="86993005"/>
    <field name="ip.addr" showname="Source or Destination Address: 134.153.48.5 (134.153.48.5)" hide="yes" size="4" pos="30" show="134.153.48.5" value="86993005"/>
    <field name="ip.dst_host" showname="Destination Host: 134.153.48.5" hide="yes" size="4" pos="30" show="134.153.48.5" value="86993005"/>
    <field name="ip.host" showname="Source or Destination Host: 134.153.48.5" hide="yes" size="4" pos="30" show="134.153.48.5" value="86993005"/>
    <field name="" show="Source GeoIP: Unknown" size="4" pos="26" value="0a3001c3"/>
    <field name="" show="Destination GeoIP: Unknown" size="4" pos="30" value="86993005"/>
  </proto>
  <proto name="tcp" showname="Transmission Control Protocol, Src Port: 51490 (51490), Dst Port: http (80), Seq: 1, Ack: 1, Len: 453" size="32" pos="34">
    <field name="tcp.srcport" showname="Source port: 51490 (51490)" size="2" pos="34" show="51490" value="c922"/>
    <field name="tcp.dstport" showname="Destination port: http (80)" size="2" pos="36" show="80" value="0050"/>
    <field name="tcp.port" showname="Source or Destination Port: 51490" hide="yes" size="2" pos="34" show="51490" value="c922"/>
    <field name="tcp.port" showname="Source or Destination Port: 80" hide="yes" size="2" pos="36" show="80" value="0050"/>
    <field name="tcp.stream" showname="Stream index: 6" size="0" pos="34" show="6"/>
    <field name="tcp.len" showname="TCP Segment Len: 453" hide="yes" size="1" pos="46" show="453" value="80"/>
    <field name="tcp.seq" showname="Sequence number: 1    (relative sequence number)" size="4" pos="38" show="1" value="13800900"/>
    <field name="tcp.nxtseq" showname="Next sequence number: 454    (relative sequence number)" size="0" pos="34" show="454"/>
    <field name="tcp.ack" showname="Acknowledgment number: 1    (relative ack number)" size="4" pos="42" show="1" value="28afbdac"/>
    <field name="tcp.hdr_len" showname="Header length: 32 bytes" size="1" pos="46" show="32" value="80"/>
    <field name="tcp.flags" showname="Flags: 0x018 (PSH, ACK)" size="2" pos="46" show="0x0018" value="18" unmaskedvalue="8018">
      <field name="tcp.flags.res" showname="000. .... .... = Reserved: Not set" size="1" pos="46" show="0" value="0" unmaskedvalue="80"/>
      <field name="tcp.flags.ns" showname="...0 .... .... = Nonce: Not set" size="1" pos="46" show="0" value="0" unmaskedvalue="80"/>
      <field name="tcp.flags.cwr" showname=".... 0... .... = Congestion Window Reduced (CWR): Not set" size="1" pos="47" show="0" value="0" unmaskedvalue="18"/>
      <field name="tcp.flags.ecn" showname=".... .0.. .... = ECN-Echo: Not set" size="1" pos="47" show="0" value="0" unmaskedvalue="18"/>
      <field name="tcp.flags.urg" showname=".... ..0. .... = Urgent: Not set" size="1" pos="47" show="0" value="0" unmaskedvalue="18"/>
      <field name="tcp.flags.ack" showname=".... ...1 .... = Acknowledgment: Set" size="1" pos="47" show="1" value="1" unmaskedvalue="18"/>
      <field name="tcp.flags.push" showname=".... .... 1... = Push: Set" size="1" pos="47" show="1" value="1" unmaskedvalue="18"/>
      <field name="tcp.flags.reset" showname=".... .... .0.. = Reset: Not set" size="1" pos="47" show="0" value="0" unmaskedvalue="18"/>
      <field name="tcp.flags.syn" showname=".... .... ..0. = Syn: Not set" size="1" pos="47" show="0" value="0" unmaskedvalue="18"/>
      <field name="tcp.flags.fin" showname=".... .... ...0 = Fin: Not set" size="1" pos="47" show="0" value="0" unmaskedvalue="18"/>
    </field>
    <field name="tcp.window_size_value" showname="Window size value: 229" size="2" pos="48" show="229" value="00e5"/>
    <field name="tcp.window_size" showname="Calculated window size: 29312" size="2" pos="48" show="29312" value="00e5"/>
    <field name="tcp.window_size_scalefactor" showname="Window size scaling factor: 128" size="2" pos="48" show="128" value="00e5"/>
    <field name="tcp.checksum" showname="Checksum: 0x1589 [validation disabled]" size="2" pos="50" show="0x1589" value="1589">
      <field name="tcp.checksum_good" showname="Good Checksum: False" size="2" pos="50" show="0" value="1589"/>
      <field name="tcp.checksum_bad" showname="Bad Checksum: False" size="2" pos="50" show="0" value="1589"/>
    </field>
    <field name="tcp.options" showname="Options: (12 bytes), No-Operation (NOP), No-Operation (NOP), Timestamps" size="12" pos="54" show="01:01:08:0a:00:a3:bf:f0:4b:b7:75:72" value="0101080a00a3bff04bb77572">
      <field name="" show="No-Operation (NOP)" size="1" pos="54" value="01">
        <field name="tcp.options.type" showname="Type: 1" size="1" pos="54" show="1" value="01">
          <field name="tcp.options.type.copy" showname="0... .... = Copy on fragmentation: No" size="1" pos="54" show="0" value="0" unmaskedvalue="01"/>
          <field name="tcp.options.type.class" showname=".00. .... = Class: Control (0)" size="1" pos="54" show="0" value="0" unmaskedvalue="01"/>
          <field name="tcp.options.type.number" showname="...0 0001 = Number: No-Operation (NOP) (1)" size="1" pos="54" show="1" value="1" unmaskedvalue="01"/>
        </field>
      </field>
      <field name="" show="No-Operation (NOP)" size="1" pos="55" value="01">
        <field name="tcp.options.type" showname="Type: 1" size="1" pos="55" show="1" value="01">
          <field name="tcp.options.type.copy" showname="0... .... = Copy on fragmentation: No" size="1" pos="55" show="0" value="0" unmaskedvalue="01"/>
          <field name="tcp.options.type.class" showname=".00. .... = Class: Control (0)" size="1" pos="55" show="0" value="0" unmaskedvalue="01"/>
          <field name="tcp.options.type.number" showname="...0 0001 = Number: No-Operation (NOP) (1)" size="1" pos="55" show="1" value="1" unmaskedvalue="01"/>
        </field>
      </field>
      <field name="" show="Timestamps: TSval 10731504, TSecr 1270314354" size="10" pos="56" value="080a00a3bff04bb77572">
        <field name="tcp.option_kind" showname="Kind: Timestamp (8)" size="1" pos="56" show="8" value="08"/>
        <field name="tcp.option_len" showname="Length: 10" size="1" pos="57" show="10" value="0a"/>
        <field name="tcp.options.timestamp.tsval" showname="Timestamp value: 10731504" size="4" pos="58" show="10731504" value="00a3bff0"/>
        <field name="tcp.options.timestamp.tsecr" showname="Timestamp echo reply: 1270314354" size="4" pos="62" show="1270314354" value="4bb77572"/>
      </field>
    </field>
    <field name="tcp.analysis" showname="SEQ/ACK analysis" size="0" pos="34" show="" value="">
      <field name="tcp.analysis.bytes_in_flight" showname="Bytes in flight: 453" size="0" pos="34" show="453"/>
    </field>
  </proto>
  <proto name="http" showname="Hypertext Transfer Protocol" size="453" pos="66">
    <field name="" show="GET /~rod/ HTTP/1.1\r\n" size="21" pos="66" value="474554202f7e726f642f20485454502f312e310d0a">
      <field name="expert" showname="Expert Info (Chat/Sequence): GET /~rod/ HTTP/1.1\r\n" size="0" pos="66">
        <field name="expert.message" showname="Message: GET /~rod/ HTTP/1.1\r\n" size="0" pos="0" show="GET /~rod/ HTTP/1.1\\r\\n"/>
        <field name="expert.severity" showname="Severity level: Chat" size="0" pos="0" show="0x00200000"/>
        <field name="expert.group" showname="Group: Sequence" size="0" pos="0" show="0x02000000"/>
      </field>
      <field name="http.request.method" showname="Request Method: GET" size="3" pos="66" show="GET" value="474554"/>
      <field name="http.request.uri" showname="Request URI: /~rod/" size="6" pos="70" show="/~rod/" value="2f7e726f642f"/>
      <field name="http.request.version" showname="Request Version: HTTP/1.1" size="8" pos="77" show="HTTP/1.1" value="485454502f312e31"/>
    </field>
    <field name="http.host" showname="Host: www.cs.mun.ca\r\n" size="21" pos="87" show="www.cs.mun.ca" value="486f73743a207777772e63732e6d756e2e63610d0a"/>
    <field name="http.connection" showname="Connection: keep-alive\r\n" size="24" pos="108" show="keep-alive" value="436f6e6e656374696f6e3a206b6565702d616c6976650d0a"/>
    <field name="http.accept" showname="Accept: text/html,application/xhtml+xml,application/xml;q=0.9,image/webp,*/*;q=0.8\r\n" size="84" pos="132" show="text/html,application/xhtml+xml,application/xml;q=0.9,image/webp,*/*;q=0.8" value="4163636570743a20746578742f68746d6c2c6170706c69636174696f6e2f7868746d6c2b786d6c2c6170706c69636174696f6e2f786d6c3b713d302e392c696d6167652f776562702c2a2f2a3b713d302e380d0a"/>
    <field name="http.user_agent" showname="User-Agent: Mozilla/5.0 (X11; Linux x86_64) AppleWebKit/537.36 (KHTML, like Gecko) Chrome/31.0.1650.63 Safari/537.36\r\n" size="118" pos="216" show="Mozilla/5.0 (X11; Linux x86_64) AppleWebKit/537.36 (KHTML, like Gecko) Chrome/31.0.1650.63 Safari/537.36" value="557365722d4167656e743a204d6f7a696c6c612f352e3020285831313b204c696e7578207838365f363429204170706c655765624b69742f3533372e333620284b48544d4c2c206c696b65204765636b6f29204368726f6d652f33312e302e313635302e3633205361666172692f3533372e33360d0a"/>
    <field name="" show="DNT: 1\r\n" size="8" pos="334" value="444e543a20310d0a"/>
    <field name="http.accept_encoding" showname="Accept-Encoding: gzip,deflate,sdch\r\n" size="36" pos="342" show="gzip,deflate,sdch" value="4163636570742d456e636f64696e673a20677a69702c6465666c6174652c736463680d0a"/>
    <field name="http.accept_language" showname="Accept-Language: en-GB,en-US;q=0.8,en;q=0.6\r\n" size="45" pos="378" show="en-GB,en-US;q=0.8,en;q=0.6" value="4163636570742d4c616e67756167653a20656e2d47422c656e2d55533b713d302e382c656e3b713d302e360d0a"/>
    <field name="" show="If-None-Match: &quot;2982014-37c-4ef12ff07e580&quot;\r\n" size="44" pos="423" value="49662d4e6f6e652d4d617463683a2022323938323031342d3337632d34656631326666303765353830220d0a"/>
    <field name="" show="If-Modified-Since: Fri, 03 Jan 2014 15:59:34 GMT\r\n" size="50" pos="467" value="49662d4d6f6469666965642d53696e63653a204672692c203033204a616e20323031342031353a35393a333420474d540d0a"/>
    <field name="" show="\r\n" size="2" pos="517" value="0d0a"/>
    <field name="http.request.full_uri" showname="Full request URI: http://www.cs.mun.ca/~rod/" size="0" pos="66" show="http://www.cs.mun.ca/~rod/"/>
    <field name="http.request" showname="Request: True" hide="yes" size="0" pos="66" show="1"/>
    <field name="" show="HTTP request 1/2" size="0" pos="66" value=""/>
    <field name="http.response_in" showname="Response in frame: 196" size="0" pos="66" show="196"/>
    <field name="http.next_request_in" showname="Next request in frame: 204" size="0" pos="66" show="204"/>
  </proto>
</packet>

<packet>
  <proto name="geninfo" pos="0" showname="General information" size="66">
    <field name="num" pos="0" show="195" showname="Number" value="c3" size="66"/>
    <field name="len" pos="0" show="66" showname="Frame Length" value="42" size="66"/>
    <field name="caplen" pos="0" show="66" showname="Captured Length" value="42" size="66"/>
    <field name="timestamp" pos="0" show="Jan  3, 2014 20:54:55.361440000 NST" showname="Captured Time" value="1388795095.361440000" size="66"/>
  </proto>
  <proto name="frame" showname="Frame 195: 66 bytes on wire (528 bits), 66 bytes captured (528 bits) on interface 0" size="66" pos="0">
    <field name="frame.interface_id" showname="Interface id: 0" size="0" pos="0" show="0"/>
    <field name="frame.encap_type" showname="Encapsulation type: Ethernet (1)" size="0" pos="0" show="1"/>
    <field name="frame.time" showname="Arrival Time: Jan  3, 2014 20:54:55.361440000 NST" size="0" pos="0" show="Jan  3, 2014 20:54:55.361440000"/>
    <field name="frame.offset_shift" showname="Time shift for this packet: 0.000000000 seconds" size="0" pos="0" show="0.000000000"/>
    <field name="frame.time_epoch" showname="Epoch Time: 1388795095.361440000 seconds" size="0" pos="0" show="1388795095.361440000"/>
    <field name="frame.time_delta" showname="Time delta from previous captured frame: 0.002085000 seconds" size="0" pos="0" show="0.002085000"/>
    <field name="frame.time_delta_displayed" showname="Time delta from previous displayed frame: 0.002085000 seconds" size="0" pos="0" show="0.002085000"/>
    <field name="frame.time_relative" showname="Time since reference or first frame: 116.388500000 seconds" size="0" pos="0" show="116.388500000"/>
    <field name="frame.number" showname="Frame Number: 195" size="0" pos="0" show="195"/>
    <field name="frame.len" showname="Frame Length: 66 bytes (528 bits)" size="0" pos="0" show="66"/>
    <field name="frame.cap_len" showname="Capture Length: 66 bytes (528 bits)" size="0" pos="0" show="66"/>
    <field name="frame.marked" showname="Frame is marked: True" size="0" pos="0" show="1"/>
    <field name="frame.ignored" showname="Frame is ignored: False" size="0" pos="0" show="0"/>
    <field name="frame.protocols" showname="Protocols in frame: eth:ip:tcp" size="0" pos="0" show="eth:ip:tcp"/>
    <field name="frame.coloring_rule.name" showname="Coloring Rule Name: HTTP" size="0" pos="0" show="HTTP"/>
    <field name="frame.coloring_rule.string" showname="Coloring Rule String: http || tcp.port == 80" size="0" pos="0" show="http || tcp.port == 80"/>
  </proto>
  <proto name="eth" showname="Ethernet II, Src: AsustekC_f6:97:3e (e0:cb:4e:f6:97:3e), Dst: Pegatron_2f:4d:48 (4c:72:b9:2f:4d:48)" size="14" pos="0">
    <field name="eth.dst" showname="Destination: Pegatron_2f:4d:48 (4c:72:b9:2f:4d:48)" size="6" pos="0" show="4c:72:b9:2f:4d:48" value="4c72b92f4d48">
      <field name="eth.addr" showname="Address: Pegatron_2f:4d:48 (4c:72:b9:2f:4d:48)" size="6" pos="0" show="4c:72:b9:2f:4d:48" value="4c72b92f4d48"/>
      <field name="eth.lg" showname=".... ..0. .... .... .... .... = LG bit: Globally unique address (factory default)" size="3" pos="0" show="0" value="0" unmaskedvalue="4c72b9"/>
      <field name="eth.ig" showname=".... ...0 .... .... .... .... = IG bit: Individual address (unicast)" size="3" pos="0" show="0" value="0" unmaskedvalue="4c72b9"/>
    </field>
    <field name="eth.src" showname="Source: AsustekC_f6:97:3e (e0:cb:4e:f6:97:3e)" size="6" pos="6" show="e0:cb:4e:f6:97:3e" value="e0cb4ef6973e">
      <field name="eth.addr" showname="Address: AsustekC_f6:97:3e (e0:cb:4e:f6:97:3e)" size="6" pos="6" show="e0:cb:4e:f6:97:3e" value="e0cb4ef6973e"/>
      <field name="eth.lg" showname=".... ..0. .... .... .... .... = LG bit: Globally unique address (factory default)" size="3" pos="6" show="0" value="0" unmaskedvalue="e0cb4e"/>
      <field name="eth.ig" showname=".... ...0 .... .... .... .... = IG bit: Individual address (unicast)" size="3" pos="6" show="0" value="0" unmaskedvalue="e0cb4e"/>
    </field>
    <field name="eth.type" showname="Type: IP (0x0800)" size="2" pos="12" show="0x0800" value="0800"/>
  </proto>
  <proto name="ip" showname="Internet Protocol Version 4, Src: 134.153.48.5 (134.153.48.5), Dst: 10.48.1.195 (10.48.1.195)" size="20" pos="14">
    <field name="ip.version" showname="Version: 4" size="1" pos="14" show="4" value="45"/>
    <field name="ip.hdr_len" showname="Header length: 20 bytes" size="1" pos="14" show="20" value="45"/>
    <field name="ip.dsfield" showname="Differentiated Services Field: 0x00 (DSCP 0x00: Default; ECN: 0x00: Not-ECT (Not ECN-Capable Transport))" size="1" pos="15" show="0" value="00">
      <field name="ip.dsfield.dscp" showname="0000 00.. = Differentiated Services Codepoint: Default (0x00)" size="1" pos="15" show="0x00" value="0" unmaskedvalue="00"/>
      <field name="ip.dsfield.ecn" showname=".... ..00 = Explicit Congestion Notification: Not-ECT (Not ECN-Capable Transport) (0x00)" size="1" pos="15" show="0x00" value="0" unmaskedvalue="00"/>
    </field>
    <field name="ip.len" showname="Total Length: 52" size="2" pos="16" show="52" value="0034"/>
    <field name="ip.id" showname="Identification: 0x1b07 (6919)" size="2" pos="18" show="0x1b07" value="1b07"/>
    <field name="ip.flags" showname="Flags: 0x02 (Don&apos;t Fragment)" size="1" pos="20" show="0x02" value="40">
      <field name="ip.flags.rb" showname="0... .... = Reserved bit: Not set" size="1" pos="20" show="0" value="40"/>
      <field name="ip.flags.df" showname=".1.. .... = Don&apos;t fragment: Set" size="1" pos="20" show="1" value="40"/>
      <field name="ip.flags.mf" showname="..0. .... = More fragments: Not set" size="1" pos="20" show="0" value="40"/>
    </field>
    <field name="ip.frag_offset" showname="Fragment offset: 0" size="2" pos="20" show="0" value="4000"/>
    <field name="ip.ttl" showname="Time to live: 56" size="1" pos="22" show="56" value="38"/>
    <field name="ip.proto" showname="Protocol: TCP (6)" size="1" pos="23" show="6" value="06"/>
    <field name="ip.checksum" showname="Header checksum: 0x652c [correct]" size="2" pos="24" show="0x652c" value="652c">
      <field name="ip.checksum_good" showname="Good: True" size="2" pos="24" show="1" value="652c"/>
      <field name="ip.checksum_bad" showname="Bad: False" size="2" pos="24" show="0" value="652c"/>
    </field>
    <field name="ip.src" showname="Source: 134.153.48.5 (134.153.48.5)" size="4" pos="26" show="134.153.48.5" value="86993005"/>
    <field name="ip.addr" showname="Source or Destination Address: 134.153.48.5 (134.153.48.5)" hide="yes" size="4" pos="26" show="134.153.48.5" value="86993005"/>
    <field name="ip.src_host" showname="Source Host: 134.153.48.5" hide="yes" size="4" pos="26" show="134.153.48.5" value="86993005"/>
    <field name="ip.host" showname="Source or Destination Host: 134.153.48.5" hide="yes" size="4" pos="26" show="134.153.48.5" value="86993005"/>
    <field name="ip.dst" showname="Destination: 10.48.1.195 (10.48.1.195)" size="4" pos="30" show="10.48.1.195" value="0a3001c3"/>
    <field name="ip.addr" showname="Source or Destination Address: 10.48.1.195 (10.48.1.195)" hide="yes" size="4" pos="30" show="10.48.1.195" value="0a3001c3"/>
    <field name="ip.dst_host" showname="Destination Host: 10.48.1.195" hide="yes" size="4" pos="30" show="10.48.1.195" value="0a3001c3"/>
    <field name="ip.host" showname="Source or Destination Host: 10.48.1.195" hide="yes" size="4" pos="30" show="10.48.1.195" value="0a3001c3"/>
    <field name="" show="Source GeoIP: Unknown" size="4" pos="26" value="86993005"/>
    <field name="" show="Destination GeoIP: Unknown" size="4" pos="30" value="0a3001c3"/>
  </proto>
  <proto name="tcp" showname="Transmission Control Protocol, Src Port: http (80), Dst Port: 51490 (51490), Seq: 1, Ack: 454, Len: 0" size="32" pos="34">
    <field name="tcp.srcport" showname="Source port: http (80)" size="2" pos="34" show="80" value="0050"/>
    <field name="tcp.dstport" showname="Destination port: 51490 (51490)" size="2" pos="36" show="51490" value="c922"/>
    <field name="tcp.port" showname="Source or Destination Port: 80" hide="yes" size="2" pos="34" show="80" value="0050"/>
    <field name="tcp.port" showname="Source or Destination Port: 51490" hide="yes" size="2" pos="36" show="51490" value="c922"/>
    <field name="tcp.stream" showname="Stream index: 6" size="0" pos="34" show="6"/>
    <field name="tcp.len" showname="TCP Segment Len: 0" hide="yes" size="1" pos="46" show="0" value="80"/>
    <field name="tcp.seq" showname="Sequence number: 1    (relative sequence number)" size="4" pos="38" show="1" value="28afbdac"/>
    <field name="tcp.ack" showname="Acknowledgment number: 454    (relative ack number)" size="4" pos="42" show="454" value="13800ac5"/>
    <field name="tcp.hdr_len" showname="Header length: 32 bytes" size="1" pos="46" show="32" value="80"/>
    <field name="tcp.flags" showname="Flags: 0x010 (ACK)" size="2" pos="46" show="0x0010" value="10" unmaskedvalue="8010">
      <field name="tcp.flags.res" showname="000. .... .... = Reserved: Not set" size="1" pos="46" show="0" value="0" unmaskedvalue="80"/>
      <field name="tcp.flags.ns" showname="...0 .... .... = Nonce: Not set" size="1" pos="46" show="0" value="0" unmaskedvalue="80"/>
      <field name="tcp.flags.cwr" showname=".... 0... .... = Congestion Window Reduced (CWR): Not set" size="1" pos="47" show="0" value="0" unmaskedvalue="10"/>
      <field name="tcp.flags.ecn" showname=".... .0.. .... = ECN-Echo: Not set" size="1" pos="47" show="0" value="0" unmaskedvalue="10"/>
      <field name="tcp.flags.urg" showname=".... ..0. .... = Urgent: Not set" size="1" pos="47" show="0" value="0" unmaskedvalue="10"/>
      <field name="tcp.flags.ack" showname=".... ...1 .... = Acknowledgment: Set" size="1" pos="47" show="1" value="1" unmaskedvalue="10"/>
      <field name="tcp.flags.push" showname=".... .... 0... = Push: Not set" size="1" pos="47" show="0" value="0" unmaskedvalue="10"/>
      <field name="tcp.flags.reset" showname=".... .... .0.. = Reset: Not set" size="1" pos="47" show="0" value="0" unmaskedvalue="10"/>
      <field name="tcp.flags.syn" showname=".... .... ..0. = Syn: Not set" size="1" pos="47" show="0" value="0" unmaskedvalue="10"/>
      <field name="tcp.flags.fin" showname=".... .... ...0 = Fin: Not set" size="1" pos="47" show="0" value="0" unmaskedvalue="10"/>
    </field>
    <field name="tcp.window_size_value" showname="Window size value: 122" size="2" pos="48" show="122" value="007a"/>
    <field name="tcp.window_size" showname="Calculated window size: 15616" size="2" pos="48" show="15616" value="007a"/>
    <field name="tcp.window_size_scalefactor" showname="Window size scaling factor: 128" size="2" pos="48" show="128" value="007a"/>
    <field name="tcp.checksum" showname="Checksum: 0x63dc [validation disabled]" size="2" pos="50" show="0x63dc" value="63dc">
      <field name="tcp.checksum_good" showname="Good Checksum: False" size="2" pos="50" show="0" value="63dc"/>
      <field name="tcp.checksum_bad" showname="Bad Checksum: False" size="2" pos="50" show="0" value="63dc"/>
    </field>
    <field name="tcp.options" showname="Options: (12 bytes), No-Operation (NOP), No-Operation (NOP), Timestamps" size="12" pos="54" show="01:01:08:0a:4b:b7:75:77:00:a3:bf:f0" value="0101080a4bb7757700a3bff0">
      <field name="" show="No-Operation (NOP)" size="1" pos="54" value="01">
        <field name="tcp.options.type" showname="Type: 1" size="1" pos="54" show="1" value="01">
          <field name="tcp.options.type.copy" showname="0... .... = Copy on fragmentation: No" size="1" pos="54" show="0" value="0" unmaskedvalue="01"/>
          <field name="tcp.options.type.class" showname=".00. .... = Class: Control (0)" size="1" pos="54" show="0" value="0" unmaskedvalue="01"/>
          <field name="tcp.options.type.number" showname="...0 0001 = Number: No-Operation (NOP) (1)" size="1" pos="54" show="1" value="1" unmaskedvalue="01"/>
        </field>
      </field>
      <field name="" show="No-Operation (NOP)" size="1" pos="55" value="01">
        <field name="tcp.options.type" showname="Type: 1" size="1" pos="55" show="1" value="01">
          <field name="tcp.options.type.copy" showname="0... .... = Copy on fragmentation: No" size="1" pos="55" show="0" value="0" unmaskedvalue="01"/>
          <field name="tcp.options.type.class" showname=".00. .... = Class: Control (0)" size="1" pos="55" show="0" value="0" unmaskedvalue="01"/>
          <field name="tcp.options.type.number" showname="...0 0001 = Number: No-Operation (NOP) (1)" size="1" pos="55" show="1" value="1" unmaskedvalue="01"/>
        </field>
      </field>
      <field name="" show="Timestamps: TSval 1270314359, TSecr 10731504" size="10" pos="56" value="080a4bb7757700a3bff0">
        <field name="tcp.option_kind" showname="Kind: Timestamp (8)" size="1" pos="56" show="8" value="08"/>
        <field name="tcp.option_len" showname="Length: 10" size="1" pos="57" show="10" value="0a"/>
        <field name="tcp.options.timestamp.tsval" showname="Timestamp value: 1270314359" size="4" pos="58" show="1270314359" value="4bb77577"/>
        <field name="tcp.options.timestamp.tsecr" showname="Timestamp echo reply: 10731504" size="4" pos="62" show="10731504" value="00a3bff0"/>
      </field>
    </field>
    <field name="tcp.analysis" showname="SEQ/ACK analysis" size="0" pos="34" show="" value="">
      <field name="tcp.analysis.acks_frame" showname="This is an ACK to the segment in frame: 194" size="0" pos="34" show="194"/>
      <field name="tcp.analysis.ack_rtt" showname="The RTT to ACK the segment was: 0.002085000 seconds" size="0" pos="34" show="0.002085000"/>
    </field>
  </proto>
</packet>

<packet>
  <proto name="geninfo" pos="0" showname="General information" size="240">
    <field name="num" pos="0" show="196" showname="Number" value="c4" size="240"/>
    <field name="len" pos="0" show="240" showname="Frame Length" value="f0" size="240"/>
    <field name="caplen" pos="0" show="240" showname="Captured Length" value="f0" size="240"/>
    <field name="timestamp" pos="0" show="Jan  3, 2014 20:54:55.363788000 NST" showname="Captured Time" value="1388795095.363788000" size="240"/>
  </proto>
  <proto name="frame" showname="Frame 196: 240 bytes on wire (1920 bits), 240 bytes captured (1920 bits) on interface 0" size="240" pos="0">
    <field name="frame.interface_id" showname="Interface id: 0" size="0" pos="0" show="0"/>
    <field name="frame.encap_type" showname="Encapsulation type: Ethernet (1)" size="0" pos="0" show="1"/>
    <field name="frame.time" showname="Arrival Time: Jan  3, 2014 20:54:55.363788000 NST" size="0" pos="0" show="Jan  3, 2014 20:54:55.363788000"/>
    <field name="frame.offset_shift" showname="Time shift for this packet: 0.000000000 seconds" size="0" pos="0" show="0.000000000"/>
    <field name="frame.time_epoch" showname="Epoch Time: 1388795095.363788000 seconds" size="0" pos="0" show="1388795095.363788000"/>
    <field name="frame.time_delta" showname="Time delta from previous captured frame: 0.002348000 seconds" size="0" pos="0" show="0.002348000"/>
    <field name="frame.time_delta_displayed" showname="Time delta from previous displayed frame: 0.002348000 seconds" size="0" pos="0" show="0.002348000"/>
    <field name="frame.time_relative" showname="Time since reference or first frame: 116.390848000 seconds" size="0" pos="0" show="116.390848000"/>
    <field name="frame.number" showname="Frame Number: 196" size="0" pos="0" show="196"/>
    <field name="frame.len" showname="Frame Length: 240 bytes (1920 bits)" size="0" pos="0" show="240"/>
    <field name="frame.cap_len" showname="Capture Length: 240 bytes (1920 bits)" size="0" pos="0" show="240"/>
    <field name="frame.marked" showname="Frame is marked: True" size="0" pos="0" show="1"/>
    <field name="frame.ignored" showname="Frame is ignored: False" size="0" pos="0" show="0"/>
    <field name="frame.protocols" showname="Protocols in frame: eth:ip:tcp:http" size="0" pos="0" show="eth:ip:tcp:http"/>
    <field name="frame.p_prot_data" showname="Number of per-protocol-data: 1" size="0" pos="0" show="1"/>
    <field name="" show="[Hypertext Transfer Protocol, key 0]" size="0" pos="0" value=""/>
    <field name="frame.coloring_rule.name" showname="Coloring Rule Name: HTTP" size="0" pos="0" show="HTTP"/>
    <field name="frame.coloring_rule.string" showname="Coloring Rule String: http || tcp.port == 80" size="0" pos="0" show="http || tcp.port == 80"/>
  </proto>
  <proto name="eth" showname="Ethernet II, Src: AsustekC_f6:97:3e (e0:cb:4e:f6:97:3e), Dst: Pegatron_2f:4d:48 (4c:72:b9:2f:4d:48)" size="14" pos="0">
    <field name="eth.dst" showname="Destination: Pegatron_2f:4d:48 (4c:72:b9:2f:4d:48)" size="6" pos="0" show="4c:72:b9:2f:4d:48" value="4c72b92f4d48">
      <field name="eth.addr" showname="Address: Pegatron_2f:4d:48 (4c:72:b9:2f:4d:48)" size="6" pos="0" show="4c:72:b9:2f:4d:48" value="4c72b92f4d48"/>
      <field name="eth.lg" showname=".... ..0. .... .... .... .... = LG bit: Globally unique address (factory default)" size="3" pos="0" show="0" value="0" unmaskedvalue="4c72b9"/>
      <field name="eth.ig" showname=".... ...0 .... .... .... .... = IG bit: Individual address (unicast)" size="3" pos="0" show="0" value="0" unmaskedvalue="4c72b9"/>
    </field>
    <field name="eth.src" showname="Source: AsustekC_f6:97:3e (e0:cb:4e:f6:97:3e)" size="6" pos="6" show="e0:cb:4e:f6:97:3e" value="e0cb4ef6973e">
      <field name="eth.addr" showname="Address: AsustekC_f6:97:3e (e0:cb:4e:f6:97:3e)" size="6" pos="6" show="e0:cb:4e:f6:97:3e" value="e0cb4ef6973e"/>
      <field name="eth.lg" showname=".... ..0. .... .... .... .... = LG bit: Globally unique address (factory default)" size="3" pos="6" show="0" value="0" unmaskedvalue="e0cb4e"/>
      <field name="eth.ig" showname=".... ...0 .... .... .... .... = IG bit: Individual address (unicast)" size="3" pos="6" show="0" value="0" unmaskedvalue="e0cb4e"/>
    </field>
    <field name="eth.type" showname="Type: IP (0x0800)" size="2" pos="12" show="0x0800" value="0800"/>
  </proto>
  <proto name="ip" showname="Internet Protocol Version 4, Src: 134.153.48.5 (134.153.48.5), Dst: 10.48.1.195 (10.48.1.195)" size="20" pos="14">
    <field name="ip.version" showname="Version: 4" size="1" pos="14" show="4" value="45"/>
    <field name="ip.hdr_len" showname="Header length: 20 bytes" size="1" pos="14" show="20" value="45"/>
    <field name="ip.dsfield" showname="Differentiated Services Field: 0x00 (DSCP 0x00: Default; ECN: 0x00: Not-ECT (Not ECN-Capable Transport))" size="1" pos="15" show="0" value="00">
      <field name="ip.dsfield.dscp" showname="0000 00.. = Differentiated Services Codepoint: Default (0x00)" size="1" pos="15" show="0x00" value="0" unmaskedvalue="00"/>
      <field name="ip.dsfield.ecn" showname=".... ..00 = Explicit Congestion Notification: Not-ECT (Not ECN-Capable Transport) (0x00)" size="1" pos="15" show="0x00" value="0" unmaskedvalue="00"/>
    </field>
    <field name="ip.len" showname="Total Length: 226" size="2" pos="16" show="226" value="00e2"/>
    <field name="ip.id" showname="Identification: 0x1b08 (6920)" size="2" pos="18" show="0x1b08" value="1b08"/>
    <field name="ip.flags" showname="Flags: 0x02 (Don&apos;t Fragment)" size="1" pos="20" show="0x02" value="40">
      <field name="ip.flags.rb" showname="0... .... = Reserved bit: Not set" size="1" pos="20" show="0" value="40"/>
      <field name="ip.flags.df" showname=".1.. .... = Don&apos;t fragment: Set" size="1" pos="20" show="1" value="40"/>
      <field name="ip.flags.mf" showname="..0. .... = More fragments: Not set" size="1" pos="20" show="0" value="40"/>
    </field>
    <field name="ip.frag_offset" showname="Fragment offset: 0" size="2" pos="20" show="0" value="4000"/>
    <field name="ip.ttl" showname="Time to live: 56" size="1" pos="22" show="56" value="38"/>
    <field name="ip.proto" showname="Protocol: TCP (6)" size="1" pos="23" show="6" value="06"/>
    <field name="ip.checksum" showname="Header checksum: 0x647d [correct]" size="2" pos="24" show="0x647d" value="647d">
      <field name="ip.checksum_good" showname="Good: True" size="2" pos="24" show="1" value="647d"/>
      <field name="ip.checksum_bad" showname="Bad: False" size="2" pos="24" show="0" value="647d"/>
    </field>
    <field name="ip.src" showname="Source: 134.153.48.5 (134.153.48.5)" size="4" pos="26" show="134.153.48.5" value="86993005"/>
    <field name="ip.addr" showname="Source or Destination Address: 134.153.48.5 (134.153.48.5)" hide="yes" size="4" pos="26" show="134.153.48.5" value="86993005"/>
    <field name="ip.src_host" showname="Source Host: 134.153.48.5" hide="yes" size="4" pos="26" show="134.153.48.5" value="86993005"/>
    <field name="ip.host" showname="Source or Destination Host: 134.153.48.5" hide="yes" size="4" pos="26" show="134.153.48.5" value="86993005"/>
    <field name="ip.dst" showname="Destination: 10.48.1.195 (10.48.1.195)" size="4" pos="30" show="10.48.1.195" value="0a3001c3"/>
    <field name="ip.addr" showname="Source or Destination Address: 10.48.1.195 (10.48.1.195)" hide="yes" size="4" pos="30" show="10.48.1.195" value="0a3001c3"/>
    <field name="ip.dst_host" showname="Destination Host: 10.48.1.195" hide="yes" size="4" pos="30" show="10.48.1.195" value="0a3001c3"/>
    <field name="ip.host" showname="Source or Destination Host: 10.48.1.195" hide="yes" size="4" pos="30" show="10.48.1.195" value="0a3001c3"/>
    <field name="" show="Source GeoIP: Unknown" size="4" pos="26" value="86993005"/>
    <field name="" show="Destination GeoIP: Unknown" size="4" pos="30" value="0a3001c3"/>
  </proto>
  <proto name="tcp" showname="Transmission Control Protocol, Src Port: http (80), Dst Port: 51490 (51490), Seq: 1, Ack: 454, Len: 174" size="32" pos="34">
    <field name="tcp.srcport" showname="Source port: http (80)" size="2" pos="34" show="80" value="0050"/>
    <field name="tcp.dstport" showname="Destination port: 51490 (51490)" size="2" pos="36" show="51490" value="c922"/>
    <field name="tcp.port" showname="Source or Destination Port: 80" hide="yes" size="2" pos="34" show="80" value="0050"/>
    <field name="tcp.port" showname="Source or Destination Port: 51490" hide="yes" size="2" pos="36" show="51490" value="c922"/>
    <field name="tcp.stream" showname="Stream index: 6" size="0" pos="34" show="6"/>
    <field name="tcp.len" showname="TCP Segment Len: 174" hide="yes" size="1" pos="46" show="174" value="80"/>
    <field name="tcp.seq" showname="Sequence number: 1    (relative sequence number)" size="4" pos="38" show="1" value="28afbdac"/>
    <field name="tcp.nxtseq" showname="Next sequence number: 175    (relative sequence number)" size="0" pos="34" show="175"/>
    <field name="tcp.ack" showname="Acknowledgment number: 454    (relative ack number)" size="4" pos="42" show="454" value="13800ac5"/>
    <field name="tcp.hdr_len" showname="Header length: 32 bytes" size="1" pos="46" show="32" value="80"/>
    <field name="tcp.flags" showname="Flags: 0x018 (PSH, ACK)" size="2" pos="46" show="0x0018" value="18" unmaskedvalue="8018">
      <field name="tcp.flags.res" showname="000. .... .... = Reserved: Not set" size="1" pos="46" show="0" value="0" unmaskedvalue="80"/>
      <field name="tcp.flags.ns" showname="...0 .... .... = Nonce: Not set" size="1" pos="46" show="0" value="0" unmaskedvalue="80"/>
      <field name="tcp.flags.cwr" showname=".... 0... .... = Congestion Window Reduced (CWR): Not set" size="1" pos="47" show="0" value="0" unmaskedvalue="18"/>
      <field name="tcp.flags.ecn" showname=".... .0.. .... = ECN-Echo: Not set" size="1" pos="47" show="0" value="0" unmaskedvalue="18"/>
      <field name="tcp.flags.urg" showname=".... ..0. .... = Urgent: Not set" size="1" pos="47" show="0" value="0" unmaskedvalue="18"/>
      <field name="tcp.flags.ack" showname=".... ...1 .... = Acknowledgment: Set" size="1" pos="47" show="1" value="1" unmaskedvalue="18"/>
      <field name="tcp.flags.push" showname=".... .... 1... = Push: Set" size="1" pos="47" show="1" value="1" unmaskedvalue="18"/>
      <field name="tcp.flags.reset" showname=".... .... .0.. = Reset: Not set" size="1" pos="47" show="0" value="0" unmaskedvalue="18"/>
      <field name="tcp.flags.syn" showname=".... .... ..0. = Syn: Not set" size="1" pos="47" show="0" value="0" unmaskedvalue="18"/>
      <field name="tcp.flags.fin" showname=".... .... ...0 = Fin: Not set" size="1" pos="47" show="0" value="0" unmaskedvalue="18"/>
    </field>
    <field name="tcp.window_size_value" showname="Window size value: 122" size="2" pos="48" show="122" value="007a"/>
    <field name="tcp.window_size" showname="Calculated window size: 15616" size="2" pos="48" show="15616" value="007a"/>
    <field name="tcp.window_size_scalefactor" showname="Window size scaling factor: 128" size="2" pos="48" show="128" value="007a"/>
    <field name="tcp.checksum" showname="Checksum: 0xa3e3 [validation disabled]" size="2" pos="50" show="0xa3e3" value="a3e3">
      <field name="tcp.checksum_good" showname="Good Checksum: False" size="2" pos="50" show="0" value="a3e3"/>
      <field name="tcp.checksum_bad" showname="Bad Checksum: False" size="2" pos="50" show="0" value="a3e3"/>
    </field>
    <field name="tcp.options" showname="Options: (12 bytes), No-Operation (NOP), No-Operation (NOP), Timestamps" size="12" pos="54" show="01:01:08:0a:4b:b7:75:77:00:a3:bf:f0" value="0101080a4bb7757700a3bff0">
      <field name="" show="No-Operation (NOP)" size="1" pos="54" value="01">
        <field name="tcp.options.type" showname="Type: 1" size="1" pos="54" show="1" value="01">
          <field name="tcp.options.type.copy" showname="0... .... = Copy on fragmentation: No" size="1" pos="54" show="0" value="0" unmaskedvalue="01"/>
          <field name="tcp.options.type.class" showname=".00. .... = Class: Control (0)" size="1" pos="54" show="0" value="0" unmaskedvalue="01"/>
          <field name="tcp.options.type.number" showname="...0 0001 = Number: No-Operation (NOP) (1)" size="1" pos="54" show="1" value="1" unmaskedvalue="01"/>
        </field>
      </field>
      <field name="" show="No-Operation (NOP)" size="1" pos="55" value="01">
        <field name="tcp.options.type" showname="Type: 1" size="1" pos="55" show="1" value="01">
          <field name="tcp.options.type.copy" showname="0... .... = Copy on fragmentation: No" size="1" pos="55" show="0" value="0" unmaskedvalue="01"/>
          <field name="tcp.options.type.class" showname=".00. .... = Class: Control (0)" size="1" pos="55" show="0" value="0" unmaskedvalue="01"/>
          <field name="tcp.options.type.number" showname="...0 0001 = Number: No-Operation (NOP) (1)" size="1" pos="55" show="1" value="1" unmaskedvalue="01"/>
        </field>
      </field>
      <field name="" show="Timestamps: TSval 1270314359, TSecr 10731504" size="10" pos="56" value="080a4bb7757700a3bff0">
        <field name="tcp.option_kind" showname="Kind: Timestamp (8)" size="1" pos="56" show="8" value="08"/>
        <field name="tcp.option_len" showname="Length: 10" size="1" pos="57" show="10" value="0a"/>
        <field name="tcp.options.timestamp.tsval" showname="Timestamp value: 1270314359" size="4" pos="58" show="1270314359" value="4bb77577"/>
        <field name="tcp.options.timestamp.tsecr" showname="Timestamp echo reply: 10731504" size="4" pos="62" show="10731504" value="00a3bff0"/>
      </field>
    </field>
    <field name="tcp.analysis" showname="SEQ/ACK analysis" size="0" pos="34" show="" value="">
      <field name="tcp.analysis.bytes_in_flight" showname="Bytes in flight: 174" size="0" pos="34" show="174"/>
    </field>
  </proto>
  <proto name="http" showname="Hypertext Transfer Protocol" size="174" pos="66">
    <field name="" show="HTTP/1.1 304 Not Modified\r\n" size="27" pos="66" value="485454502f312e3120333034204e6f74204d6f6469666965640d0a">
      <field name="expert" showname="Expert Info (Chat/Sequence): HTTP/1.1 304 Not Modified\r\n" size="0" pos="66">
        <field name="expert.message" showname="Message: HTTP/1.1 304 Not Modified\r\n" size="0" pos="0" show="HTTP/1.1 304 Not Modified\\r\\n"/>
        <field name="expert.severity" showname="Severity level: Chat" size="0" pos="0" show="0x00200000"/>
        <field name="expert.group" showname="Group: Sequence" size="0" pos="0" show="0x02000000"/>
      </field>
      <field name="http.request.version" showname="Request Version: HTTP/1.1" size="8" pos="66" show="HTTP/1.1" value="485454502f312e31"/>
      <field name="http.response.code" showname="Status Code: 304" size="3" pos="75" show="304" value="333034"/>
      <field name="http.response.phrase" showname="Response Phrase: Not Modified" size="12" pos="79" show="Not Modified" value="4e6f74204d6f646966696564"/>
    </field>
    <field name="http.date" showname="Date: Sat, 04 Jan 2014 00:24:54 GMT\r\n" size="37" pos="93" show="Sat, 04 Jan 2014 00:24:54 GMT" value="446174653a205361742c203034204a616e20323031342030303a32343a353420474d540d0a"/>
    <field name="http.server" showname="Server: Apache\r\n" size="16" pos="130" show="Apache" value="5365727665723a204170616368650d0a"/>
    <field name="http.connection" showname="Connection: Keep-Alive\r\n" size="24" pos="146" show="Keep-Alive" value="436f6e6e656374696f6e3a204b6565702d416c6976650d0a"/>
    <field name="" show="Keep-Alive: timeout=15, max=100\r\n" size="33" pos="170" value="4b6565702d416c6976653a2074696d656f75743d31352c206d61783d3130300d0a"/>
    <field name="" show="ETag: &quot;2982014-37c-4ef12ff07e580&quot;\r\n" size="35" pos="203" value="455461673a2022323938323031342d3337632d34656631326666303765353830220d0a"/>
    <field name="" show="\r\n" size="2" pos="238" value="0d0a"/>
    <field name="http.response" showname="Response: True" hide="yes" size="0" pos="66" show="1"/>
    <field name="" show="HTTP response 1/2" size="0" pos="66" value=""/>
    <field name="http.time" showname="Time since request: 0.004433000 seconds" size="0" pos="66" show="0.004433000"/>
    <field name="http.request_in" showname="Request in frame: 194" size="0" pos="66" show="194"/>
    <field name="http.next_request_in" showname="Next request in frame: 204" size="0" pos="66" show="204"/>
    <field name="http.next_response_in" showname="Next response in frame: 205" size="0" pos="66" show="205"/>
  </proto>
</packet>

<packet>
  <proto name="geninfo" pos="0" showname="General information" size="66">
    <field name="num" pos="0" show="197" showname="Number" value="c5" size="66"/>
    <field name="len" pos="0" show="66" showname="Frame Length" value="42" size="66"/>
    <field name="caplen" pos="0" show="66" showname="Captured Length" value="42" size="66"/>
    <field name="timestamp" pos="0" show="Jan  3, 2014 20:54:55.363829000 NST" showname="Captured Time" value="1388795095.363829000" size="66"/>
  </proto>
  <proto name="frame" showname="Frame 197: 66 bytes on wire (528 bits), 66 bytes captured (528 bits) on interface 0" size="66" pos="0">
    <field name="frame.interface_id" showname="Interface id: 0" size="0" pos="0" show="0"/>
    <field name="frame.encap_type" showname="Encapsulation type: Ethernet (1)" size="0" pos="0" show="1"/>
    <field name="frame.time" showname="Arrival Time: Jan  3, 2014 20:54:55.363829000 NST" size="0" pos="0" show="Jan  3, 2014 20:54:55.363829000"/>
    <field name="frame.offset_shift" showname="Time shift for this packet: 0.000000000 seconds" size="0" pos="0" show="0.000000000"/>
    <field name="frame.time_epoch" showname="Epoch Time: 1388795095.363829000 seconds" size="0" pos="0" show="1388795095.363829000"/>
    <field name="frame.time_delta" showname="Time delta from previous captured frame: 0.000041000 seconds" size="0" pos="0" show="0.000041000"/>
    <field name="frame.time_delta_displayed" showname="Time delta from previous displayed frame: 0.000041000 seconds" size="0" pos="0" show="0.000041000"/>
    <field name="frame.time_relative" showname="Time since reference or first frame: 116.390889000 seconds" size="0" pos="0" show="116.390889000"/>
    <field name="frame.number" showname="Frame Number: 197" size="0" pos="0" show="197"/>
    <field name="frame.len" showname="Frame Length: 66 bytes (528 bits)" size="0" pos="0" show="66"/>
    <field name="frame.cap_len" showname="Capture Length: 66 bytes (528 bits)" size="0" pos="0" show="66"/>
    <field name="frame.marked" showname="Frame is marked: True" size="0" pos="0" show="1"/>
    <field name="frame.ignored" showname="Frame is ignored: False" size="0" pos="0" show="0"/>
    <field name="frame.protocols" showname="Protocols in frame: eth:ip:tcp" size="0" pos="0" show="eth:ip:tcp"/>
    <field name="frame.coloring_rule.name" showname="Coloring Rule Name: HTTP" size="0" pos="0" show="HTTP"/>
    <field name="frame.coloring_rule.string" showname="Coloring Rule String: http || tcp.port == 80" size="0" pos="0" show="http || tcp.port == 80"/>
  </proto>
  <proto name="eth" showname="Ethernet II, Src: Pegatron_2f:4d:48 (4c:72:b9:2f:4d:48), Dst: AsustekC_f6:97:3e (e0:cb:4e:f6:97:3e)" size="14" pos="0">
    <field name="eth.dst" showname="Destination: AsustekC_f6:97:3e (e0:cb:4e:f6:97:3e)" size="6" pos="0" show="e0:cb:4e:f6:97:3e" value="e0cb4ef6973e">
      <field name="eth.addr" showname="Address: AsustekC_f6:97:3e (e0:cb:4e:f6:97:3e)" size="6" pos="0" show="e0:cb:4e:f6:97:3e" value="e0cb4ef6973e"/>
      <field name="eth.lg" showname=".... ..0. .... .... .... .... = LG bit: Globally unique address (factory default)" size="3" pos="0" show="0" value="0" unmaskedvalue="e0cb4e"/>
      <field name="eth.ig" showname=".... ...0 .... .... .... .... = IG bit: Individual address (unicast)" size="3" pos="0" show="0" value="0" unmaskedvalue="e0cb4e"/>
    </field>
    <field name="eth.src" showname="Source: Pegatron_2f:4d:48 (4c:72:b9:2f:4d:48)" size="6" pos="6" show="4c:72:b9:2f:4d:48" value="4c72b92f4d48">
      <field name="eth.addr" showname="Address: Pegatron_2f:4d:48 (4c:72:b9:2f:4d:48)" size="6" pos="6" show="4c:72:b9:2f:4d:48" value="4c72b92f4d48"/>
      <field name="eth.lg" showname=".... ..0. .... .... .... .... = LG bit: Globally unique address (factory default)" size="3" pos="6" show="0" value="0" unmaskedvalue="4c72b9"/>
      <field name="eth.ig" showname=".... ...0 .... .... .... .... = IG bit: Individual address (unicast)" size="3" pos="6" show="0" value="0" unmaskedvalue="4c72b9"/>
    </field>
    <field name="eth.type" showname="Type: IP (0x0800)" size="2" pos="12" show="0x0800" value="0800"/>
  </proto>
  <proto name="ip" showname="Internet Protocol Version 4, Src: 10.48.1.195 (10.48.1.195), Dst: 134.153.48.5 (134.153.48.5)" size="20" pos="14">
    <field name="ip.version" showname="Version: 4" size="1" pos="14" show="4" value="45"/>
    <field name="ip.hdr_len" showname="Header length: 20 bytes" size="1" pos="14" show="20" value="45"/>
    <field name="ip.dsfield" showname="Differentiated Services Field: 0x00 (DSCP 0x00: Default; ECN: 0x00: Not-ECT (Not ECN-Capable Transport))" size="1" pos="15" show="0" value="00">
      <field name="ip.dsfield.dscp" showname="0000 00.. = Differentiated Services Codepoint: Default (0x00)" size="1" pos="15" show="0x00" value="0" unmaskedvalue="00"/>
      <field name="ip.dsfield.ecn" showname=".... ..00 = Explicit Congestion Notification: Not-ECT (Not ECN-Capable Transport) (0x00)" size="1" pos="15" show="0x00" value="0" unmaskedvalue="00"/>
    </field>
    <field name="ip.len" showname="Total Length: 52" size="2" pos="16" show="52" value="0034"/>
    <field name="ip.id" showname="Identification: 0xb718 (46872)" size="2" pos="18" show="0xb718" value="b718"/>
    <field name="ip.flags" showname="Flags: 0x02 (Don&apos;t Fragment)" size="1" pos="20" show="0x02" value="40">
      <field name="ip.flags.rb" showname="0... .... = Reserved bit: Not set" size="1" pos="20" show="0" value="40"/>
      <field name="ip.flags.df" showname=".1.. .... = Don&apos;t fragment: Set" size="1" pos="20" show="1" value="40"/>
      <field name="ip.flags.mf" showname="..0. .... = More fragments: Not set" size="1" pos="20" show="0" value="40"/>
    </field>
    <field name="ip.frag_offset" showname="Fragment offset: 0" size="2" pos="20" show="0" value="4000"/>
    <field name="ip.ttl" showname="Time to live: 64" size="1" pos="22" show="64" value="40"/>
    <field name="ip.proto" showname="Protocol: TCP (6)" size="1" pos="23" show="6" value="06"/>
    <field name="ip.checksum" showname="Header checksum: 0xc11a [correct]" size="2" pos="24" show="0xc11a" value="c11a">
      <field name="ip.checksum_good" showname="Good: True" size="2" pos="24" show="1" value="c11a"/>
      <field name="ip.checksum_bad" showname="Bad: False" size="2" pos="24" show="0" value="c11a"/>
    </field>
    <field name="ip.src" showname="Source: 10.48.1.195 (10.48.1.195)" size="4" pos="26" show="10.48.1.195" value="0a3001c3"/>
    <field name="ip.addr" showname="Source or Destination Address: 10.48.1.195 (10.48.1.195)" hide="yes" size="4" pos="26" show="10.48.1.195" value="0a3001c3"/>
    <field name="ip.src_host" showname="Source Host: 10.48.1.195" hide="yes" size="4" pos="26" show="10.48.1.195" value="0a3001c3"/>
    <field name="ip.host" showname="Source or Destination Host: 10.48.1.195" hide="yes" size="4" pos="26" show="10.48.1.195" value="0a3001c3"/>
    <field name="ip.dst" showname="Destination: 134.153.48.5 (134.153.48.5)" size="4" pos="30" show="134.153.48.5" value="86993005"/>
    <field name="ip.addr" showname="Source or Destination Address: 134.153.48.5 (134.153.48.5)" hide="yes" size="4" pos="30" show="134.153.48.5" value="86993005"/>
    <field name="ip.dst_host" showname="Destination Host: 134.153.48.5" hide="yes" size="4" pos="30" show="134.153.48.5" value="86993005"/>
    <field name="ip.host" showname="Source or Destination Host: 134.153.48.5" hide="yes" size="4" pos="30" show="134.153.48.5" value="86993005"/>
    <field name="" show="Source GeoIP: Unknown" size="4" pos="26" value="0a3001c3"/>
    <field name="" show="Destination GeoIP: Unknown" size="4" pos="30" value="86993005"/>
  </proto>
  <proto name="tcp" showname="Transmission Control Protocol, Src Port: 51490 (51490), Dst Port: http (80), Seq: 454, Ack: 175, Len: 0" size="32" pos="34">
    <field name="tcp.srcport" showname="Source port: 51490 (51490)" size="2" pos="34" show="51490" value="c922"/>
    <field name="tcp.dstport" showname="Destination port: http (80)" size="2" pos="36" show="80" value="0050"/>
    <field name="tcp.port" showname="Source or Destination Port: 51490" hide="yes" size="2" pos="34" show="51490" value="c922"/>
    <field name="tcp.port" showname="Source or Destination Port: 80" hide="yes" size="2" pos="36" show="80" value="0050"/>
    <field name="tcp.stream" showname="Stream index: 6" size="0" pos="34" show="6"/>
    <field name="tcp.len" showname="TCP Segment Len: 0" hide="yes" size="1" pos="46" show="0" value="80"/>
    <field name="tcp.seq" showname="Sequence number: 454    (relative sequence number)" size="4" pos="38" show="454" value="13800ac5"/>
    <field name="tcp.ack" showname="Acknowledgment number: 175    (relative ack number)" size="4" pos="42" show="175" value="28afbe5a"/>
    <field name="tcp.hdr_len" showname="Header length: 32 bytes" size="1" pos="46" show="32" value="80"/>
    <field name="tcp.flags" showname="Flags: 0x010 (ACK)" size="2" pos="46" show="0x0010" value="10" unmaskedvalue="8010">
      <field name="tcp.flags.res" showname="000. .... .... = Reserved: Not set" size="1" pos="46" show="0" value="0" unmaskedvalue="80"/>
      <field name="tcp.flags.ns" showname="...0 .... .... = Nonce: Not set" size="1" pos="46" show="0" value="0" unmaskedvalue="80"/>
      <field name="tcp.flags.cwr" showname=".... 0... .... = Congestion Window Reduced (CWR): Not set" size="1" pos="47" show="0" value="0" unmaskedvalue="10"/>
      <field name="tcp.flags.ecn" showname=".... .0.. .... = ECN-Echo: Not set" size="1" pos="47" show="0" value="0" unmaskedvalue="10"/>
      <field name="tcp.flags.urg" showname=".... ..0. .... = Urgent: Not set" size="1" pos="47" show="0" value="0" unmaskedvalue="10"/>
      <field name="tcp.flags.ack" showname=".... ...1 .... = Acknowledgment: Set" size="1" pos="47" show="1" value="1" unmaskedvalue="10"/>
      <field name="tcp.flags.push" showname=".... .... 0... = Push: Not set" size="1" pos="47" show="0" value="0" unmaskedvalue="10"/>
      <field name="tcp.flags.reset" showname=".... .... .0.. = Reset: Not set" size="1" pos="47" show="0" value="0" unmaskedvalue="10"/>
      <field name="tcp.flags.syn" showname=".... .... ..0. = Syn: Not set" size="1" pos="47" show="0" value="0" unmaskedvalue="10"/>
      <field name="tcp.flags.fin" showname=".... .... ...0 = Fin: Not set" size="1" pos="47" show="0" value="0" unmaskedvalue="10"/>
    </field>
    <field name="tcp.window_size_value" showname="Window size value: 237" size="2" pos="48" show="237" value="00ed"/>
    <field name="tcp.window_size" showname="Calculated window size: 30336" size="2" pos="48" show="30336" value="00ed"/>
    <field name="tcp.window_size_scalefactor" showname="Window size scaling factor: 128" size="2" pos="48" show="128" value="00ed"/>
    <field name="tcp.checksum" showname="Checksum: 0x62ba [validation disabled]" size="2" pos="50" show="0x62ba" value="62ba">
      <field name="tcp.checksum_good" showname="Good Checksum: False" size="2" pos="50" show="0" value="62ba"/>
      <field name="tcp.checksum_bad" showname="Bad Checksum: False" size="2" pos="50" show="0" value="62ba"/>
    </field>
    <field name="tcp.options" showname="Options: (12 bytes), No-Operation (NOP), No-Operation (NOP), Timestamps" size="12" pos="54" show="01:01:08:0a:00:a3:bf:f1:4b:b7:75:77" value="0101080a00a3bff14bb77577">
      <field name="" show="No-Operation (NOP)" size="1" pos="54" value="01">
        <field name="tcp.options.type" showname="Type: 1" size="1" pos="54" show="1" value="01">
          <field name="tcp.options.type.copy" showname="0... .... = Copy on fragmentation: No" size="1" pos="54" show="0" value="0" unmaskedvalue="01"/>
          <field name="tcp.options.type.class" showname=".00. .... = Class: Control (0)" size="1" pos="54" show="0" value="0" unmaskedvalue="01"/>
          <field name="tcp.options.type.number" showname="...0 0001 = Number: No-Operation (NOP) (1)" size="1" pos="54" show="1" value="1" unmaskedvalue="01"/>
        </field>
      </field>
      <field name="" show="No-Operation (NOP)" size="1" pos="55" value="01">
        <field name="tcp.options.type" showname="Type: 1" size="1" pos="55" show="1" value="01">
          <field name="tcp.options.type.copy" showname="0... .... = Copy on fragmentation: No" size="1" pos="55" show="0" value="0" unmaskedvalue="01"/>
          <field name="tcp.options.type.class" showname=".00. .... = Class: Control (0)" size="1" pos="55" show="0" value="0" unmaskedvalue="01"/>
          <field name="tcp.options.type.number" showname="...0 0001 = Number: No-Operation (NOP) (1)" size="1" pos="55" show="1" value="1" unmaskedvalue="01"/>
        </field>
      </field>
      <field name="" show="Timestamps: TSval 10731505, TSecr 1270314359" size="10" pos="56" value="080a00a3bff14bb77577">
        <field name="tcp.option_kind" showname="Kind: Timestamp (8)" size="1" pos="56" show="8" value="08"/>
        <field name="tcp.option_len" showname="Length: 10" size="1" pos="57" show="10" value="0a"/>
        <field name="tcp.options.timestamp.tsval" showname="Timestamp value: 10731505" size="4" pos="58" show="10731505" value="00a3bff1"/>
        <field name="tcp.options.timestamp.tsecr" showname="Timestamp echo reply: 1270314359" size="4" pos="62" show="1270314359" value="4bb77577"/>
      </field>
    </field>
    <field name="tcp.analysis" showname="SEQ/ACK analysis" size="0" pos="34" show="" value="">
      <field name="tcp.analysis.acks_frame" showname="This is an ACK to the segment in frame: 196" size="0" pos="34" show="196"/>
      <field name="tcp.analysis.ack_rtt" showname="The RTT to ACK the segment was: 0.000041000 seconds" size="0" pos="34" show="0.000041000"/>
    </field>
  </proto>
</packet>

<packet>
  <proto name="geninfo" pos="0" showname="General information" size="360">
    <field name="num" pos="0" show="204" showname="Number" value="cc" size="360"/>
    <field name="len" pos="0" show="360" showname="Frame Length" value="168" size="360"/>
    <field name="caplen" pos="0" show="360" showname="Captured Length" value="168" size="360"/>
    <field name="timestamp" pos="0" show="Jan  3, 2014 20:54:55.500309000 NST" showname="Captured Time" value="1388795095.500309000" size="360"/>
  </proto>
  <proto name="frame" showname="Frame 204: 360 bytes on wire (2880 bits), 360 bytes captured (2880 bits) on interface 0" size="360" pos="0">
    <field name="frame.interface_id" showname="Interface id: 0" size="0" pos="0" show="0"/>
    <field name="frame.encap_type" showname="Encapsulation type: Ethernet (1)" size="0" pos="0" show="1"/>
    <field name="frame.time" showname="Arrival Time: Jan  3, 2014 20:54:55.500309000 NST" size="0" pos="0" show="Jan  3, 2014 20:54:55.500309000"/>
    <field name="frame.offset_shift" showname="Time shift for this packet: 0.000000000 seconds" size="0" pos="0" show="0.000000000"/>
    <field name="frame.time_epoch" showname="Epoch Time: 1388795095.500309000 seconds" size="0" pos="0" show="1388795095.500309000"/>
    <field name="frame.time_delta" showname="Time delta from previous captured frame: 0.056505000 seconds" size="0" pos="0" show="0.056505000"/>
    <field name="frame.time_delta_displayed" showname="Time delta from previous displayed frame: 0.136480000 seconds" size="0" pos="0" show="0.136480000"/>
    <field name="frame.time_relative" showname="Time since reference or first frame: 116.527369000 seconds" size="0" pos="0" show="116.527369000"/>
    <field name="frame.number" showname="Frame Number: 204" size="0" pos="0" show="204"/>
    <field name="frame.len" showname="Frame Length: 360 bytes (2880 bits)" size="0" pos="0" show="360"/>
    <field name="frame.cap_len" showname="Capture Length: 360 bytes (2880 bits)" size="0" pos="0" show="360"/>
    <field name="frame.marked" showname="Frame is marked: True" size="0" pos="0" show="1"/>
    <field name="frame.ignored" showname="Frame is ignored: False" size="0" pos="0" show="0"/>
    <field name="frame.protocols" showname="Protocols in frame: eth:ip:tcp:http" size="0" pos="0" show="eth:ip:tcp:http"/>
    <field name="frame.p_prot_data" showname="Number of per-protocol-data: 1" size="0" pos="0" show="1"/>
    <field name="" show="[Hypertext Transfer Protocol, key 0]" size="0" pos="0" value=""/>
    <field name="frame.coloring_rule.name" showname="Coloring Rule Name: HTTP" size="0" pos="0" show="HTTP"/>
    <field name="frame.coloring_rule.string" showname="Coloring Rule String: http || tcp.port == 80" size="0" pos="0" show="http || tcp.port == 80"/>
  </proto>
  <proto name="eth" showname="Ethernet II, Src: Pegatron_2f:4d:48 (4c:72:b9:2f:4d:48), Dst: AsustekC_f6:97:3e (e0:cb:4e:f6:97:3e)" size="14" pos="0">
    <field name="eth.dst" showname="Destination: AsustekC_f6:97:3e (e0:cb:4e:f6:97:3e)" size="6" pos="0" show="e0:cb:4e:f6:97:3e" value="e0cb4ef6973e">
      <field name="eth.addr" showname="Address: AsustekC_f6:97:3e (e0:cb:4e:f6:97:3e)" size="6" pos="0" show="e0:cb:4e:f6:97:3e" value="e0cb4ef6973e"/>
      <field name="eth.lg" showname=".... ..0. .... .... .... .... = LG bit: Globally unique address (factory default)" size="3" pos="0" show="0" value="0" unmaskedvalue="e0cb4e"/>
      <field name="eth.ig" showname=".... ...0 .... .... .... .... = IG bit: Individual address (unicast)" size="3" pos="0" show="0" value="0" unmaskedvalue="e0cb4e"/>
    </field>
    <field name="eth.src" showname="Source: Pegatron_2f:4d:48 (4c:72:b9:2f:4d:48)" size="6" pos="6" show="4c:72:b9:2f:4d:48" value="4c72b92f4d48">
      <field name="eth.addr" showname="Address: Pegatron_2f:4d:48 (4c:72:b9:2f:4d:48)" size="6" pos="6" show="4c:72:b9:2f:4d:48" value="4c72b92f4d48"/>
      <field name="eth.lg" showname=".... ..0. .... .... .... .... = LG bit: Globally unique address (factory default)" size="3" pos="6" show="0" value="0" unmaskedvalue="4c72b9"/>
      <field name="eth.ig" showname=".... ...0 .... .... .... .... = IG bit: Individual address (unicast)" size="3" pos="6" show="0" value="0" unmaskedvalue="4c72b9"/>
    </field>
    <field name="eth.type" showname="Type: IP (0x0800)" size="2" pos="12" show="0x0800" value="0800"/>
  </proto>
  <proto name="ip" showname="Internet Protocol Version 4, Src: 10.48.1.195 (10.48.1.195), Dst: 134.153.48.5 (134.153.48.5)" size="20" pos="14">
    <field name="ip.version" showname="Version: 4" size="1" pos="14" show="4" value="45"/>
    <field name="ip.hdr_len" showname="Header length: 20 bytes" size="1" pos="14" show="20" value="45"/>
    <field name="ip.dsfield" showname="Differentiated Services Field: 0x00 (DSCP 0x00: Default; ECN: 0x00: Not-ECT (Not ECN-Capable Transport))" size="1" pos="15" show="0" value="00">
      <field name="ip.dsfield.dscp" showname="0000 00.. = Differentiated Services Codepoint: Default (0x00)" size="1" pos="15" show="0x00" value="0" unmaskedvalue="00"/>
      <field name="ip.dsfield.ecn" showname=".... ..00 = Explicit Congestion Notification: Not-ECT (Not ECN-Capable Transport) (0x00)" size="1" pos="15" show="0x00" value="0" unmaskedvalue="00"/>
    </field>
    <field name="ip.len" showname="Total Length: 346" size="2" pos="16" show="346" value="015a"/>
    <field name="ip.id" showname="Identification: 0xb719 (46873)" size="2" pos="18" show="0xb719" value="b719"/>
    <field name="ip.flags" showname="Flags: 0x02 (Don&apos;t Fragment)" size="1" pos="20" show="0x02" value="40">
      <field name="ip.flags.rb" showname="0... .... = Reserved bit: Not set" size="1" pos="20" show="0" value="40"/>
      <field name="ip.flags.df" showname=".1.. .... = Don&apos;t fragment: Set" size="1" pos="20" show="1" value="40"/>
      <field name="ip.flags.mf" showname="..0. .... = More fragments: Not set" size="1" pos="20" show="0" value="40"/>
    </field>
    <field name="ip.frag_offset" showname="Fragment offset: 0" size="2" pos="20" show="0" value="4000"/>
    <field name="ip.ttl" showname="Time to live: 64" size="1" pos="22" show="64" value="40"/>
    <field name="ip.proto" showname="Protocol: TCP (6)" size="1" pos="23" show="6" value="06"/>
    <field name="ip.checksum" showname="Header checksum: 0xbff3 [correct]" size="2" pos="24" show="0xbff3" value="bff3">
      <field name="ip.checksum_good" showname="Good: True" size="2" pos="24" show="1" value="bff3"/>
      <field name="ip.checksum_bad" showname="Bad: False" size="2" pos="24" show="0" value="bff3"/>
    </field>
    <field name="ip.src" showname="Source: 10.48.1.195 (10.48.1.195)" size="4" pos="26" show="10.48.1.195" value="0a3001c3"/>
    <field name="ip.addr" showname="Source or Destination Address: 10.48.1.195 (10.48.1.195)" hide="yes" size="4" pos="26" show="10.48.1.195" value="0a3001c3"/>
    <field name="ip.src_host" showname="Source Host: 10.48.1.195" hide="yes" size="4" pos="26" show="10.48.1.195" value="0a3001c3"/>
    <field name="ip.host" showname="Source or Destination Host: 10.48.1.195" hide="yes" size="4" pos="26" show="10.48.1.195" value="0a3001c3"/>
    <field name="ip.dst" showname="Destination: 134.153.48.5 (134.153.48.5)" size="4" pos="30" show="134.153.48.5" value="86993005"/>
    <field name="ip.addr" showname="Source or Destination Address: 134.153.48.5 (134.153.48.5)" hide="yes" size="4" pos="30" show="134.153.48.5" value="86993005"/>
    <field name="ip.dst_host" showname="Destination Host: 134.153.48.5" hide="yes" size="4" pos="30" show="134.153.48.5" value="86993005"/>
    <field name="ip.host" showname="Source or Destination Host: 134.153.48.5" hide="yes" size="4" pos="30" show="134.153.48.5" value="86993005"/>
    <field name="" show="Source GeoIP: Unknown" size="4" pos="26" value="0a3001c3"/>
    <field name="" show="Destination GeoIP: Unknown" size="4" pos="30" value="86993005"/>
  </proto>
  <proto name="tcp" showname="Transmission Control Protocol, Src Port: 51490 (51490), Dst Port: http (80), Seq: 454, Ack: 175, Len: 294" size="32" pos="34">
    <field name="tcp.srcport" showname="Source port: 51490 (51490)" size="2" pos="34" show="51490" value="c922"/>
    <field name="tcp.dstport" showname="Destination port: http (80)" size="2" pos="36" show="80" value="0050"/>
    <field name="tcp.port" showname="Source or Destination Port: 51490" hide="yes" size="2" pos="34" show="51490" value="c922"/>
    <field name="tcp.port" showname="Source or Destination Port: 80" hide="yes" size="2" pos="36" show="80" value="0050"/>
    <field name="tcp.stream" showname="Stream index: 6" size="0" pos="34" show="6"/>
    <field name="tcp.len" showname="TCP Segment Len: 294" hide="yes" size="1" pos="46" show="294" value="80"/>
    <field name="tcp.seq" showname="Sequence number: 454    (relative sequence number)" size="4" pos="38" show="454" value="13800ac5"/>
    <field name="tcp.nxtseq" showname="Next sequence number: 748    (relative sequence number)" size="0" pos="34" show="748"/>
    <field name="tcp.ack" showname="Acknowledgment number: 175    (relative ack number)" size="4" pos="42" show="175" value="28afbe5a"/>
    <field name="tcp.hdr_len" showname="Header length: 32 bytes" size="1" pos="46" show="32" value="80"/>
    <field name="tcp.flags" showname="Flags: 0x018 (PSH, ACK)" size="2" pos="46" show="0x0018" value="18" unmaskedvalue="8018">
      <field name="tcp.flags.res" showname="000. .... .... = Reserved: Not set" size="1" pos="46" show="0" value="0" unmaskedvalue="80"/>
      <field name="tcp.flags.ns" showname="...0 .... .... = Nonce: Not set" size="1" pos="46" show="0" value="0" unmaskedvalue="80"/>
      <field name="tcp.flags.cwr" showname=".... 0... .... = Congestion Window Reduced (CWR): Not set" size="1" pos="47" show="0" value="0" unmaskedvalue="18"/>
      <field name="tcp.flags.ecn" showname=".... .0.. .... = ECN-Echo: Not set" size="1" pos="47" show="0" value="0" unmaskedvalue="18"/>
      <field name="tcp.flags.urg" showname=".... ..0. .... = Urgent: Not set" size="1" pos="47" show="0" value="0" unmaskedvalue="18"/>
      <field name="tcp.flags.ack" showname=".... ...1 .... = Acknowledgment: Set" size="1" pos="47" show="1" value="1" unmaskedvalue="18"/>
      <field name="tcp.flags.push" showname=".... .... 1... = Push: Set" size="1" pos="47" show="1" value="1" unmaskedvalue="18"/>
      <field name="tcp.flags.reset" showname=".... .... .0.. = Reset: Not set" size="1" pos="47" show="0" value="0" unmaskedvalue="18"/>
      <field name="tcp.flags.syn" showname=".... .... ..0. = Syn: Not set" size="1" pos="47" show="0" value="0" unmaskedvalue="18"/>
      <field name="tcp.flags.fin" showname=".... .... ...0 = Fin: Not set" size="1" pos="47" show="0" value="0" unmaskedvalue="18"/>
    </field>
    <field name="tcp.window_size_value" showname="Window size value: 237" size="2" pos="48" show="237" value="00ed"/>
    <field name="tcp.window_size" showname="Calculated window size: 30336" size="2" pos="48" show="30336" value="00ed"/>
    <field name="tcp.window_size_scalefactor" showname="Window size scaling factor: 128" size="2" pos="48" show="128" value="00ed"/>
    <field name="tcp.checksum" showname="Checksum: 0x03d7 [validation disabled]" size="2" pos="50" show="0x03d7" value="03d7">
      <field name="tcp.checksum_good" showname="Good Checksum: False" size="2" pos="50" show="0" value="03d7"/>
      <field name="tcp.checksum_bad" showname="Bad Checksum: False" size="2" pos="50" show="0" value="03d7"/>
    </field>
    <field name="tcp.options" showname="Options: (12 bytes), No-Operation (NOP), No-Operation (NOP), Timestamps" size="12" pos="54" show="01:01:08:0a:00:a3:c0:13:4b:b7:75:77" value="0101080a00a3c0134bb77577">
      <field name="" show="No-Operation (NOP)" size="1" pos="54" value="01">
        <field name="tcp.options.type" showname="Type: 1" size="1" pos="54" show="1" value="01">
          <field name="tcp.options.type.copy" showname="0... .... = Copy on fragmentation: No" size="1" pos="54" show="0" value="0" unmaskedvalue="01"/>
          <field name="tcp.options.type.class" showname=".00. .... = Class: Control (0)" size="1" pos="54" show="0" value="0" unmaskedvalue="01"/>
          <field name="tcp.options.type.number" showname="...0 0001 = Number: No-Operation (NOP) (1)" size="1" pos="54" show="1" value="1" unmaskedvalue="01"/>
        </field>
      </field>
      <field name="" show="No-Operation (NOP)" size="1" pos="55" value="01">
        <field name="tcp.options.type" showname="Type: 1" size="1" pos="55" show="1" value="01">
          <field name="tcp.options.type.copy" showname="0... .... = Copy on fragmentation: No" size="1" pos="55" show="0" value="0" unmaskedvalue="01"/>
          <field name="tcp.options.type.class" showname=".00. .... = Class: Control (0)" size="1" pos="55" show="0" value="0" unmaskedvalue="01"/>
          <field name="tcp.options.type.number" showname="...0 0001 = Number: No-Operation (NOP) (1)" size="1" pos="55" show="1" value="1" unmaskedvalue="01"/>
        </field>
      </field>
      <field name="" show="Timestamps: TSval 10731539, TSecr 1270314359" size="10" pos="56" value="080a00a3c0134bb77577">
        <field name="tcp.option_kind" showname="Kind: Timestamp (8)" size="1" pos="56" show="8" value="08"/>
        <field name="tcp.option_len" showname="Length: 10" size="1" pos="57" show="10" value="0a"/>
        <field name="tcp.options.timestamp.tsval" showname="Timestamp value: 10731539" size="4" pos="58" show="10731539" value="00a3c013"/>
        <field name="tcp.options.timestamp.tsecr" showname="Timestamp echo reply: 1270314359" size="4" pos="62" show="1270314359" value="4bb77577"/>
      </field>
    </field>
    <field name="tcp.analysis" showname="SEQ/ACK analysis" size="0" pos="34" show="" value="">
      <field name="tcp.analysis.bytes_in_flight" showname="Bytes in flight: 294" size="0" pos="34" show="294"/>
    </field>
  </proto>
  <proto name="http" showname="Hypertext Transfer Protocol" size="294" pos="66">
    <field name="" show="GET /favicon.ico HTTP/1.1\r\n" size="27" pos="66" value="474554202f66617669636f6e2e69636f20485454502f312e310d0a">
      <field name="expert" showname="Expert Info (Chat/Sequence): GET /favicon.ico HTTP/1.1\r\n" size="0" pos="66">
        <field name="expert.message" showname="Message: GET /favicon.ico HTTP/1.1\r\n" size="0" pos="0" show="GET /favicon.ico HTTP/1.1\\r\\n"/>
        <field name="expert.severity" showname="Severity level: Chat" size="0" pos="0" show="0x00200000"/>
        <field name="expert.group" showname="Group: Sequence" size="0" pos="0" show="0x02000000"/>
      </field>
      <field name="http.request.method" showname="Request Method: GET" size="3" pos="66" show="GET" value="474554"/>
      <field name="http.request.uri" showname="Request URI: /favicon.ico" size="12" pos="70" show="/favicon.ico" value="2f66617669636f6e2e69636f"/>
      <field name="http.request.version" showname="Request Version: HTTP/1.1" size="8" pos="83" show="HTTP/1.1" value="485454502f312e31"/>
    </field>
    <field name="http.host" showname="Host: www.cs.mun.ca\r\n" size="21" pos="93" show="www.cs.mun.ca" value="486f73743a207777772e63732e6d756e2e63610d0a"/>
    <field name="http.connection" showname="Connection: keep-alive\r\n" size="24" pos="114" show="keep-alive" value="436f6e6e656374696f6e3a206b6565702d616c6976650d0a"/>
    <field name="http.accept" showname="Accept: */*\r\n" size="13" pos="138" show="*/*" value="4163636570743a202a2f2a0d0a"/>
    <field name="" show="DNT: 1\r\n" size="8" pos="151" value="444e543a20310d0a"/>
    <field name="http.user_agent" showname="User-Agent: Mozilla/5.0 (X11; Linux x86_64) AppleWebKit/537.36 (KHTML, like Gecko) Chrome/31.0.1650.63 Safari/537.36\r\n" size="118" pos="159" show="Mozilla/5.0 (X11; Linux x86_64) AppleWebKit/537.36 (KHTML, like Gecko) Chrome/31.0.1650.63 Safari/537.36" value="557365722d4167656e743a204d6f7a696c6c612f352e3020285831313b204c696e7578207838365f363429204170706c655765624b69742f3533372e333620284b48544d4c2c206c696b65204765636b6f29204368726f6d652f33312e302e313635302e3633205361666172692f3533372e33360d0a"/>
    <field name="http.accept_encoding" showname="Accept-Encoding: gzip,deflate,sdch\r\n" size="36" pos="277" show="gzip,deflate,sdch" value="4163636570742d456e636f64696e673a20677a69702c6465666c6174652c736463680d0a"/>
    <field name="http.accept_language" showname="Accept-Language: en-GB,en-US;q=0.8,en;q=0.6\r\n" size="45" pos="313" show="en-GB,en-US;q=0.8,en;q=0.6" value="4163636570742d4c616e67756167653a20656e2d47422c656e2d55533b713d302e382c656e3b713d302e360d0a"/>
    <field name="" show="\r\n" size="2" pos="358" value="0d0a"/>
    <field name="http.request.full_uri" showname="Full request URI: http://www.cs.mun.ca/favicon.ico" size="0" pos="66" show="http://www.cs.mun.ca/favicon.ico"/>
    <field name="http.request" showname="Request: True" hide="yes" size="0" pos="66" show="1"/>
    <field name="" show="HTTP request 2/2" size="0" pos="66" value=""/>
    <field name="http.prev_request_in" showname="Prev request in frame: 194" size="0" pos="66" show="194"/>
    <field name="http.response_in" showname="Response in frame: 205" size="0" pos="66" show="205"/>
  </proto>
</packet>

<packet>
  <proto name="geninfo" pos="0" showname="General information" size="539">
    <field name="num" pos="0" show="205" showname="Number" value="cd" size="539"/>
    <field name="len" pos="0" show="539" showname="Frame Length" value="21b" size="539"/>
    <field name="caplen" pos="0" show="539" showname="Captured Length" value="21b" size="539"/>
    <field name="timestamp" pos="0" show="Jan  3, 2014 20:54:55.505710000 NST" showname="Captured Time" value="1388795095.505710000" size="539"/>
  </proto>
  <proto name="frame" showname="Frame 205: 539 bytes on wire (4312 bits), 539 bytes captured (4312 bits) on interface 0" size="539" pos="0">
    <field name="frame.interface_id" showname="Interface id: 0" size="0" pos="0" show="0"/>
    <field name="frame.encap_type" showname="Encapsulation type: Ethernet (1)" size="0" pos="0" show="1"/>
    <field name="frame.time" showname="Arrival Time: Jan  3, 2014 20:54:55.505710000 NST" size="0" pos="0" show="Jan  3, 2014 20:54:55.505710000"/>
    <field name="frame.offset_shift" showname="Time shift for this packet: 0.000000000 seconds" size="0" pos="0" show="0.000000000"/>
    <field name="frame.time_epoch" showname="Epoch Time: 1388795095.505710000 seconds" size="0" pos="0" show="1388795095.505710000"/>
    <field name="frame.time_delta" showname="Time delta from previous captured frame: 0.005401000 seconds" size="0" pos="0" show="0.005401000"/>
    <field name="frame.time_delta_displayed" showname="Time delta from previous displayed frame: 0.005401000 seconds" size="0" pos="0" show="0.005401000"/>
    <field name="frame.time_relative" showname="Time since reference or first frame: 116.532770000 seconds" size="0" pos="0" show="116.532770000"/>
    <field name="frame.number" showname="Frame Number: 205" size="0" pos="0" show="205"/>
    <field name="frame.len" showname="Frame Length: 539 bytes (4312 bits)" size="0" pos="0" show="539"/>
    <field name="frame.cap_len" showname="Capture Length: 539 bytes (4312 bits)" size="0" pos="0" show="539"/>
    <field name="frame.marked" showname="Frame is marked: True" size="0" pos="0" show="1"/>
    <field name="frame.ignored" showname="Frame is ignored: False" size="0" pos="0" show="0"/>
    <field name="frame.protocols" showname="Protocols in frame: eth:ip:tcp:http:data-text-lines" size="0" pos="0" show="eth:ip:tcp:http:data-text-lines"/>
    <field name="frame.p_prot_data" showname="Number of per-protocol-data: 1" size="0" pos="0" show="1"/>
    <field name="" show="[Hypertext Transfer Protocol, key 0]" size="0" pos="0" value=""/>
    <field name="frame.coloring_rule.name" showname="Coloring Rule Name: HTTP" size="0" pos="0" show="HTTP"/>
    <field name="frame.coloring_rule.string" showname="Coloring Rule String: http || tcp.port == 80" size="0" pos="0" show="http || tcp.port == 80"/>
  </proto>
  <proto name="eth" showname="Ethernet II, Src: AsustekC_f6:97:3e (e0:cb:4e:f6:97:3e), Dst: Pegatron_2f:4d:48 (4c:72:b9:2f:4d:48)" size="14" pos="0">
    <field name="eth.dst" showname="Destination: Pegatron_2f:4d:48 (4c:72:b9:2f:4d:48)" size="6" pos="0" show="4c:72:b9:2f:4d:48" value="4c72b92f4d48">
      <field name="eth.addr" showname="Address: Pegatron_2f:4d:48 (4c:72:b9:2f:4d:48)" size="6" pos="0" show="4c:72:b9:2f:4d:48" value="4c72b92f4d48"/>
      <field name="eth.lg" showname=".... ..0. .... .... .... .... = LG bit: Globally unique address (factory default)" size="3" pos="0" show="0" value="0" unmaskedvalue="4c72b9"/>
      <field name="eth.ig" showname=".... ...0 .... .... .... .... = IG bit: Individual address (unicast)" size="3" pos="0" show="0" value="0" unmaskedvalue="4c72b9"/>
    </field>
    <field name="eth.src" showname="Source: AsustekC_f6:97:3e (e0:cb:4e:f6:97:3e)" size="6" pos="6" show="e0:cb:4e:f6:97:3e" value="e0cb4ef6973e">
      <field name="eth.addr" showname="Address: AsustekC_f6:97:3e (e0:cb:4e:f6:97:3e)" size="6" pos="6" show="e0:cb:4e:f6:97:3e" value="e0cb4ef6973e"/>
      <field name="eth.lg" showname=".... ..0. .... .... .... .... = LG bit: Globally unique address (factory default)" size="3" pos="6" show="0" value="0" unmaskedvalue="e0cb4e"/>
      <field name="eth.ig" showname=".... ...0 .... .... .... .... = IG bit: Individual address (unicast)" size="3" pos="6" show="0" value="0" unmaskedvalue="e0cb4e"/>
    </field>
    <field name="eth.type" showname="Type: IP (0x0800)" size="2" pos="12" show="0x0800" value="0800"/>
  </proto>
  <proto name="ip" showname="Internet Protocol Version 4, Src: 134.153.48.5 (134.153.48.5), Dst: 10.48.1.195 (10.48.1.195)" size="20" pos="14">
    <field name="ip.version" showname="Version: 4" size="1" pos="14" show="4" value="45"/>
    <field name="ip.hdr_len" showname="Header length: 20 bytes" size="1" pos="14" show="20" value="45"/>
    <field name="ip.dsfield" showname="Differentiated Services Field: 0x00 (DSCP 0x00: Default; ECN: 0x00: Not-ECT (Not ECN-Capable Transport))" size="1" pos="15" show="0" value="00">
      <field name="ip.dsfield.dscp" showname="0000 00.. = Differentiated Services Codepoint: Default (0x00)" size="1" pos="15" show="0x00" value="0" unmaskedvalue="00"/>
      <field name="ip.dsfield.ecn" showname=".... ..00 = Explicit Congestion Notification: Not-ECT (Not ECN-Capable Transport) (0x00)" size="1" pos="15" show="0x00" value="0" unmaskedvalue="00"/>
    </field>
    <field name="ip.len" showname="Total Length: 525" size="2" pos="16" show="525" value="020d"/>
    <field name="ip.id" showname="Identification: 0x1b09 (6921)" size="2" pos="18" show="0x1b09" value="1b09"/>
    <field name="ip.flags" showname="Flags: 0x02 (Don&apos;t Fragment)" size="1" pos="20" show="0x02" value="40">
      <field name="ip.flags.rb" showname="0... .... = Reserved bit: Not set" size="1" pos="20" show="0" value="40"/>
      <field name="ip.flags.df" showname=".1.. .... = Don&apos;t fragment: Set" size="1" pos="20" show="1" value="40"/>
      <field name="ip.flags.mf" showname="..0. .... = More fragments: Not set" size="1" pos="20" show="0" value="40"/>
    </field>
    <field name="ip.frag_offset" showname="Fragment offset: 0" size="2" pos="20" show="0" value="4000"/>
    <field name="ip.ttl" showname="Time to live: 56" size="1" pos="22" show="56" value="38"/>
    <field name="ip.proto" showname="Protocol: TCP (6)" size="1" pos="23" show="6" value="06"/>
    <field name="ip.checksum" showname="Header checksum: 0x6351 [correct]" size="2" pos="24" show="0x6351" value="6351">
      <field name="ip.checksum_good" showname="Good: True" size="2" pos="24" show="1" value="6351"/>
      <field name="ip.checksum_bad" showname="Bad: False" size="2" pos="24" show="0" value="6351"/>
    </field>
    <field name="ip.src" showname="Source: 134.153.48.5 (134.153.48.5)" size="4" pos="26" show="134.153.48.5" value="86993005"/>
    <field name="ip.addr" showname="Source or Destination Address: 134.153.48.5 (134.153.48.5)" hide="yes" size="4" pos="26" show="134.153.48.5" value="86993005"/>
    <field name="ip.src_host" showname="Source Host: 134.153.48.5" hide="yes" size="4" pos="26" show="134.153.48.5" value="86993005"/>
    <field name="ip.host" showname="Source or Destination Host: 134.153.48.5" hide="yes" size="4" pos="26" show="134.153.48.5" value="86993005"/>
    <field name="ip.dst" showname="Destination: 10.48.1.195 (10.48.1.195)" size="4" pos="30" show="10.48.1.195" value="0a3001c3"/>
    <field name="ip.addr" showname="Source or Destination Address: 10.48.1.195 (10.48.1.195)" hide="yes" size="4" pos="30" show="10.48.1.195" value="0a3001c3"/>
    <field name="ip.dst_host" showname="Destination Host: 10.48.1.195" hide="yes" size="4" pos="30" show="10.48.1.195" value="0a3001c3"/>
    <field name="ip.host" showname="Source or Destination Host: 10.48.1.195" hide="yes" size="4" pos="30" show="10.48.1.195" value="0a3001c3"/>
    <field name="" show="Source GeoIP: Unknown" size="4" pos="26" value="86993005"/>
    <field name="" show="Destination GeoIP: Unknown" size="4" pos="30" value="0a3001c3"/>
  </proto>
  <proto name="tcp" showname="Transmission Control Protocol, Src Port: http (80), Dst Port: 51490 (51490), Seq: 175, Ack: 748, Len: 473" size="32" pos="34">
    <field name="tcp.srcport" showname="Source port: http (80)" size="2" pos="34" show="80" value="0050"/>
    <field name="tcp.dstport" showname="Destination port: 51490 (51490)" size="2" pos="36" show="51490" value="c922"/>
    <field name="tcp.port" showname="Source or Destination Port: 80" hide="yes" size="2" pos="34" show="80" value="0050"/>
    <field name="tcp.port" showname="Source or Destination Port: 51490" hide="yes" size="2" pos="36" show="51490" value="c922"/>
    <field name="tcp.stream" showname="Stream index: 6" size="0" pos="34" show="6"/>
    <field name="tcp.len" showname="TCP Segment Len: 473" hide="yes" size="1" pos="46" show="473" value="80"/>
    <field name="tcp.seq" showname="Sequence number: 175    (relative sequence number)" size="4" pos="38" show="175" value="28afbe5a"/>
    <field name="tcp.nxtseq" showname="Next sequence number: 648    (relative sequence number)" size="0" pos="34" show="648"/>
    <field name="tcp.ack" showname="Acknowledgment number: 748    (relative ack number)" size="4" pos="42" show="748" value="13800beb"/>
    <field name="tcp.hdr_len" showname="Header length: 32 bytes" size="1" pos="46" show="32" value="80"/>
    <field name="tcp.flags" showname="Flags: 0x018 (PSH, ACK)" size="2" pos="46" show="0x0018" value="18" unmaskedvalue="8018">
      <field name="tcp.flags.res" showname="000. .... .... = Reserved: Not set" size="1" pos="46" show="0" value="0" unmaskedvalue="80"/>
      <field name="tcp.flags.ns" showname="...0 .... .... = Nonce: Not set" size="1" pos="46" show="0" value="0" unmaskedvalue="80"/>
      <field name="tcp.flags.cwr" showname=".... 0... .... = Congestion Window Reduced (CWR): Not set" size="1" pos="47" show="0" value="0" unmaskedvalue="18"/>
      <field name="tcp.flags.ecn" showname=".... .0.. .... = ECN-Echo: Not set" size="1" pos="47" show="0" value="0" unmaskedvalue="18"/>
      <field name="tcp.flags.urg" showname=".... ..0. .... = Urgent: Not set" size="1" pos="47" show="0" value="0" unmaskedvalue="18"/>
      <field name="tcp.flags.ack" showname=".... ...1 .... = Acknowledgment: Set" size="1" pos="47" show="1" value="1" unmaskedvalue="18"/>
      <field name="tcp.flags.push" showname=".... .... 1... = Push: Set" size="1" pos="47" show="1" value="1" unmaskedvalue="18"/>
      <field name="tcp.flags.reset" showname=".... .... .0.. = Reset: Not set" size="1" pos="47" show="0" value="0" unmaskedvalue="18"/>
      <field name="tcp.flags.syn" showname=".... .... ..0. = Syn: Not set" size="1" pos="47" show="0" value="0" unmaskedvalue="18"/>
      <field name="tcp.flags.fin" showname=".... .... ...0 = Fin: Not set" size="1" pos="47" show="0" value="0" unmaskedvalue="18"/>
    </field>
    <field name="tcp.window_size_value" showname="Window size value: 130" size="2" pos="48" show="130" value="0082"/>
    <field name="tcp.window_size" showname="Calculated window size: 16640" size="2" pos="48" show="16640" value="0082"/>
    <field name="tcp.window_size_scalefactor" showname="Window size scaling factor: 128" size="2" pos="48" show="128" value="0082"/>
    <field name="tcp.checksum" showname="Checksum: 0x60ab [validation disabled]" size="2" pos="50" show="0x60ab" value="60ab">
      <field name="tcp.checksum_good" showname="Good Checksum: False" size="2" pos="50" show="0" value="60ab"/>
      <field name="tcp.checksum_bad" showname="Bad Checksum: False" size="2" pos="50" show="0" value="60ab"/>
    </field>
    <field name="tcp.options" showname="Options: (12 bytes), No-Operation (NOP), No-Operation (NOP), Timestamps" size="12" pos="54" show="01:01:08:0a:4b:b7:75:9b:00:a3:c0:13" value="0101080a4bb7759b00a3c013">
      <field name="" show="No-Operation (NOP)" size="1" pos="54" value="01">
        <field name="tcp.options.type" showname="Type: 1" size="1" pos="54" show="1" value="01">
          <field name="tcp.options.type.copy" showname="0... .... = Copy on fragmentation: No" size="1" pos="54" show="0" value="0" unmaskedvalue="01"/>
          <field name="tcp.options.type.class" showname=".00. .... = Class: Control (0)" size="1" pos="54" show="0" value="0" unmaskedvalue="01"/>
          <field name="tcp.options.type.number" showname="...0 0001 = Number: No-Operation (NOP) (1)" size="1" pos="54" show="1" value="1" unmaskedvalue="01"/>
        </field>
      </field>
      <field name="" show="No-Operation (NOP)" size="1" pos="55" value="01">
        <field name="tcp.options.type" showname="Type: 1" size="1" pos="55" show="1" value="01">
          <field name="tcp.options.type.copy" showname="0... .... = Copy on fragmentation: No" size="1" pos="55" show="0" value="0" unmaskedvalue="01"/>
          <field name="tcp.options.type.class" showname=".00. .... = Class: Control (0)" size="1" pos="55" show="0" value="0" unmaskedvalue="01"/>
          <field name="tcp.options.type.number" showname="...0 0001 = Number: No-Operation (NOP) (1)" size="1" pos="55" show="1" value="1" unmaskedvalue="01"/>
        </field>
      </field>
      <field name="" show="Timestamps: TSval 1270314395, TSecr 10731539" size="10" pos="56" value="080a4bb7759b00a3c013">
        <field name="tcp.option_kind" showname="Kind: Timestamp (8)" size="1" pos="56" show="8" value="08"/>
        <field name="tcp.option_len" showname="Length: 10" size="1" pos="57" show="10" value="0a"/>
        <field name="tcp.options.timestamp.tsval" showname="Timestamp value: 1270314395" size="4" pos="58" show="1270314395" value="4bb7759b"/>
        <field name="tcp.options.timestamp.tsecr" showname="Timestamp echo reply: 10731539" size="4" pos="62" show="10731539" value="00a3c013"/>
      </field>
    </field>
    <field name="tcp.analysis" showname="SEQ/ACK analysis" size="0" pos="34" show="" value="">
      <field name="tcp.analysis.acks_frame" showname="This is an ACK to the segment in frame: 204" size="0" pos="34" show="204"/>
      <field name="tcp.analysis.ack_rtt" showname="The RTT to ACK the segment was: 0.005401000 seconds" size="0" pos="34" show="0.005401000"/>
      <field name="tcp.analysis.bytes_in_flight" showname="Bytes in flight: 473" size="0" pos="34" show="473"/>
    </field>
  </proto>
  <proto name="http" showname="Hypertext Transfer Protocol" size="201" pos="66">
    <field name="" show="HTTP/1.1 404 Not Found\r\n" size="24" pos="66" value="485454502f312e3120343034204e6f7420466f756e640d0a">
      <field name="expert" showname="Expert Info (Chat/Sequence): HTTP/1.1 404 Not Found\r\n" size="0" pos="66">
        <field name="expert.message" showname="Message: HTTP/1.1 404 Not Found\r\n" size="0" pos="0" show="HTTP/1.1 404 Not Found\\r\\n"/>
        <field name="expert.severity" showname="Severity level: Chat" size="0" pos="0" show="0x00200000"/>
        <field name="expert.group" showname="Group: Sequence" size="0" pos="0" show="0x02000000"/>
      </field>
      <field name="http.request.version" showname="Request Version: HTTP/1.1" size="8" pos="66" show="HTTP/1.1" value="485454502f312e31"/>
      <field name="http.response.code" showname="Status Code: 404" size="3" pos="75" show="404" value="343034"/>
      <field name="http.response.phrase" showname="Response Phrase: Not Found" size="9" pos="79" show="Not Found" value="4e6f7420466f756e64"/>
    </field>
    <field name="http.date" showname="Date: Sat, 04 Jan 2014 00:24:54 GMT\r\n" size="37" pos="90" show="Sat, 04 Jan 2014 00:24:54 GMT" value="446174653a205361742c203034204a616e20323031342030303a32343a353420474d540d0a"/>
    <field name="http.server" showname="Server: Apache\r\n" size="16" pos="127" show="Apache" value="5365727665723a204170616368650d0a"/>
    <field name="http.content_length_header" showname="Content-Length: 272\r\n" size="21" pos="143" show="272" value="436f6e74656e742d4c656e6774683a203237320d0a">
      <field name="http.content_length" showname="Content length: 272" size="21" pos="143" show="272" value="436f6e74656e742d4c656e6774683a203237320d0a"/>
    </field>
    <field name="" show="Keep-Alive: timeout=15, max=99\r\n" size="32" pos="164" value="4b6565702d416c6976653a2074696d656f75743d31352c206d61783d39390d0a"/>
    <field name="http.connection" showname="Connection: Keep-Alive\r\n" size="24" pos="196" show="Keep-Alive" value="436f6e6e656374696f6e3a204b6565702d416c6976650d0a"/>
    <field name="http.content_type" showname="Content-Type: text/html; charset=iso-8859-1\r\n" size="45" pos="220" show="text/html; charset=iso-8859-1" value="436f6e74656e742d547970653a20746578742f68746d6c3b20636861727365743d69736f2d383835392d310d0a"/>
    <field name="" show="\r\n" size="2" pos="265" value="0d0a"/>
    <field name="http.response" showname="Response: True" hide="yes" size="0" pos="66" show="1"/>
    <field name="" show="HTTP response 2/2" size="0" pos="66" value=""/>
    <field name="http.time" showname="Time since request: 0.005401000 seconds" size="0" pos="66" show="0.005401000"/>
    <field name="http.prev_request_in" showname="Prev request in frame: 194" size="0" pos="66" show="194"/>
    <field name="http.prev_response_in" showname="Prev response in frame: 196" size="0" pos="66" show="196"/>
    <field name="http.request_in" showname="Request in frame: 204" size="0" pos="66" show="204"/>
  </proto>
  <proto name="data-text-lines" showname="Line-based text data: text/html" size="272" pos="267">
    <field name="" show="&lt;!DOCTYPE HTML PUBLIC &quot;-//IETF//DTD HTML 2.0//EN&quot;&gt;\n" size="51" pos="267" value="3c21444f43545950452048544d4c205055424c494320222d2f2f494554462f2f4454442048544d4c20322e302f2f454e223e0a"/>
    <field name="" show="&lt;html&gt;&lt;head&gt;\n" size="13" pos="318" value="3c68746d6c3e3c686561643e0a"/>
    <field name="" show="&lt;title&gt;404 Not Found&lt;/title&gt;\n" size="29" pos="331" value="3c7469746c653e343034204e6f7420466f756e643c2f7469746c653e0a"/>
    <field name="" show="&lt;/head&gt;&lt;body&gt;\n" size="14" pos="360" value="3c2f686561643e3c626f64793e0a"/>
    <field name="" show="&lt;h1&gt;Not Found&lt;/h1&gt;\n" size="19" pos="374" value="3c68313e4e6f7420466f756e643c2f68313e0a"/>
    <field name="" show="&lt;p&gt;The requested URL /favicon.ico was not found on this server.&lt;/p&gt;\n" size="68" pos="393" value="3c703e546865207265717565737465642055524c202f66617669636f6e2e69636f20776173206e6f7420666f756e64206f6e2074686973207365727665722e3c2f703e0a"/>
    <field name="" show="&lt;hr&gt;\n" size="5" pos="461" value="3c68723e0a"/>
    <field name="" show="&lt;address&gt;Apache Server at www.cs.mun.ca Port 80&lt;/address&gt;\n" size="58" pos="466" value="3c616464726573733e41706163686520536572766572206174207777772e63732e6d756e2e636120506f72742038303c2f616464726573733e0a"/>
    <field name="" show="&lt;/body&gt;&lt;/html&gt;\n" size="15" pos="524" value="3c2f626f64793e3c2f68746d6c3e0a"/>
  </proto>
</packet>

<packet>
  <proto name="geninfo" pos="0" showname="General information" size="66">
    <field name="num" pos="0" show="206" showname="Number" value="ce" size="66"/>
    <field name="len" pos="0" show="66" showname="Frame Length" value="42" size="66"/>
    <field name="caplen" pos="0" show="66" showname="Captured Length" value="42" size="66"/>
    <field name="timestamp" pos="0" show="Jan  3, 2014 20:54:55.505768000 NST" showname="Captured Time" value="1388795095.505768000" size="66"/>
  </proto>
  <proto name="frame" showname="Frame 206: 66 bytes on wire (528 bits), 66 bytes captured (528 bits) on interface 0" size="66" pos="0">
    <field name="frame.interface_id" showname="Interface id: 0" size="0" pos="0" show="0"/>
    <field name="frame.encap_type" showname="Encapsulation type: Ethernet (1)" size="0" pos="0" show="1"/>
    <field name="frame.time" showname="Arrival Time: Jan  3, 2014 20:54:55.505768000 NST" size="0" pos="0" show="Jan  3, 2014 20:54:55.505768000"/>
    <field name="frame.offset_shift" showname="Time shift for this packet: 0.000000000 seconds" size="0" pos="0" show="0.000000000"/>
    <field name="frame.time_epoch" showname="Epoch Time: 1388795095.505768000 seconds" size="0" pos="0" show="1388795095.505768000"/>
    <field name="frame.time_delta" showname="Time delta from previous captured frame: 0.000058000 seconds" size="0" pos="0" show="0.000058000"/>
    <field name="frame.time_delta_displayed" showname="Time delta from previous displayed frame: 0.000058000 seconds" size="0" pos="0" show="0.000058000"/>
    <field name="frame.time_relative" showname="Time since reference or first frame: 116.532828000 seconds" size="0" pos="0" show="116.532828000"/>
    <field name="frame.number" showname="Frame Number: 206" size="0" pos="0" show="206"/>
    <field name="frame.len" showname="Frame Length: 66 bytes (528 bits)" size="0" pos="0" show="66"/>
    <field name="frame.cap_len" showname="Capture Length: 66 bytes (528 bits)" size="0" pos="0" show="66"/>
    <field name="frame.marked" showname="Frame is marked: True" size="0" pos="0" show="1"/>
    <field name="frame.ignored" showname="Frame is ignored: False" size="0" pos="0" show="0"/>
    <field name="frame.protocols" showname="Protocols in frame: eth:ip:tcp" size="0" pos="0" show="eth:ip:tcp"/>
    <field name="frame.coloring_rule.name" showname="Coloring Rule Name: HTTP" size="0" pos="0" show="HTTP"/>
    <field name="frame.coloring_rule.string" showname="Coloring Rule String: http || tcp.port == 80" size="0" pos="0" show="http || tcp.port == 80"/>
  </proto>
  <proto name="eth" showname="Ethernet II, Src: Pegatron_2f:4d:48 (4c:72:b9:2f:4d:48), Dst: AsustekC_f6:97:3e (e0:cb:4e:f6:97:3e)" size="14" pos="0">
    <field name="eth.dst" showname="Destination: AsustekC_f6:97:3e (e0:cb:4e:f6:97:3e)" size="6" pos="0" show="e0:cb:4e:f6:97:3e" value="e0cb4ef6973e">
      <field name="eth.addr" showname="Address: AsustekC_f6:97:3e (e0:cb:4e:f6:97:3e)" size="6" pos="0" show="e0:cb:4e:f6:97:3e" value="e0cb4ef6973e"/>
      <field name="eth.lg" showname=".... ..0. .... .... .... .... = LG bit: Globally unique address (factory default)" size="3" pos="0" show="0" value="0" unmaskedvalue="e0cb4e"/>
      <field name="eth.ig" showname=".... ...0 .... .... .... .... = IG bit: Individual address (unicast)" size="3" pos="0" show="0" value="0" unmaskedvalue="e0cb4e"/>
    </field>
    <field name="eth.src" showname="Source: Pegatron_2f:4d:48 (4c:72:b9:2f:4d:48)" size="6" pos="6" show="4c:72:b9:2f:4d:48" value="4c72b92f4d48">
      <field name="eth.addr" showname="Address: Pegatron_2f:4d:48 (4c:72:b9:2f:4d:48)" size="6" pos="6" show="4c:72:b9:2f:4d:48" value="4c72b92f4d48"/>
      <field name="eth.lg" showname=".... ..0. .... .... .... .... = LG bit: Globally unique address (factory default)" size="3" pos="6" show="0" value="0" unmaskedvalue="4c72b9"/>
      <field name="eth.ig" showname=".... ...0 .... .... .... .... = IG bit: Individual address (unicast)" size="3" pos="6" show="0" value="0" unmaskedvalue="4c72b9"/>
    </field>
    <field name="eth.type" showname="Type: IP (0x0800)" size="2" pos="12" show="0x0800" value="0800"/>
  </proto>
  <proto name="ip" showname="Internet Protocol Version 4, Src: 10.48.1.195 (10.48.1.195), Dst: 134.153.48.5 (134.153.48.5)" size="20" pos="14">
    <field name="ip.version" showname="Version: 4" size="1" pos="14" show="4" value="45"/>
    <field name="ip.hdr_len" showname="Header length: 20 bytes" size="1" pos="14" show="20" value="45"/>
    <field name="ip.dsfield" showname="Differentiated Services Field: 0x00 (DSCP 0x00: Default; ECN: 0x00: Not-ECT (Not ECN-Capable Transport))" size="1" pos="15" show="0" value="00">
      <field name="ip.dsfield.dscp" showname="0000 00.. = Differentiated Services Codepoint: Default (0x00)" size="1" pos="15" show="0x00" value="0" unmaskedvalue="00"/>
      <field name="ip.dsfield.ecn" showname=".... ..00 = Explicit Congestion Notification: Not-ECT (Not ECN-Capable Transport) (0x00)" size="1" pos="15" show="0x00" value="0" unmaskedvalue="00"/>
    </field>
    <field name="ip.len" showname="Total Length: 52" size="2" pos="16" show="52" value="0034"/>
    <field name="ip.id" showname="Identification: 0xb71a (46874)" size="2" pos="18" show="0xb71a" value="b71a"/>
    <field name="ip.flags" showname="Flags: 0x02 (Don&apos;t Fragment)" size="1" pos="20" show="0x02" value="40">
      <field name="ip.flags.rb" showname="0... .... = Reserved bit: Not set" size="1" pos="20" show="0" value="40"/>
      <field name="ip.flags.df" showname=".1.. .... = Don&apos;t fragment: Set" size="1" pos="20" show="1" value="40"/>
      <field name="ip.flags.mf" showname="..0. .... = More fragments: Not set" size="1" pos="20" show="0" value="40"/>
    </field>
    <field name="ip.frag_offset" showname="Fragment offset: 0" size="2" pos="20" show="0" value="4000"/>
    <field name="ip.ttl" showname="Time to live: 64" size="1" pos="22" show="64" value="40"/>
    <field name="ip.proto" showname="Protocol: TCP (6)" size="1" pos="23" show="6" value="06"/>
    <field name="ip.checksum" showname="Header checksum: 0xc118 [correct]" size="2" pos="24" show="0xc118" value="c118">
      <field name="ip.checksum_good" showname="Good: True" size="2" pos="24" show="1" value="c118"/>
      <field name="ip.checksum_bad" showname="Bad: False" size="2" pos="24" show="0" value="c118"/>
    </field>
    <field name="ip.src" showname="Source: 10.48.1.195 (10.48.1.195)" size="4" pos="26" show="10.48.1.195" value="0a3001c3"/>
    <field name="ip.addr" showname="Source or Destination Address: 10.48.1.195 (10.48.1.195)" hide="yes" size="4" pos="26" show="10.48.1.195" value="0a3001c3"/>
    <field name="ip.src_host" showname="Source Host: 10.48.1.195" hide="yes" size="4" pos="26" show="10.48.1.195" value="0a3001c3"/>
    <field name="ip.host" showname="Source or Destination Host: 10.48.1.195" hide="yes" size="4" pos="26" show="10.48.1.195" value="0a3001c3"/>
    <field name="ip.dst" showname="Destination: 134.153.48.5 (134.153.48.5)" size="4" pos="30" show="134.153.48.5" value="86993005"/>
    <field name="ip.addr" showname="Source or Destination Address: 134.153.48.5 (134.153.48.5)" hide="yes" size="4" pos="30" show="134.153.48.5" value="86993005"/>
    <field name="ip.dst_host" showname="Destination Host: 134.153.48.5" hide="yes" size="4" pos="30" show="134.153.48.5" value="86993005"/>
    <field name="ip.host" showname="Source or Destination Host: 134.153.48.5" hide="yes" size="4" pos="30" show="134.153.48.5" value="86993005"/>
    <field name="" show="Source GeoIP: Unknown" size="4" pos="26" value="0a3001c3"/>
    <field name="" show="Destination GeoIP: Unknown" size="4" pos="30" value="86993005"/>
  </proto>
  <proto name="tcp" showname="Transmission Control Protocol, Src Port: 51490 (51490), Dst Port: http (80), Seq: 748, Ack: 648, Len: 0" size="32" pos="34">
    <field name="tcp.srcport" showname="Source port: 51490 (51490)" size="2" pos="34" show="51490" value="c922"/>
    <field name="tcp.dstport" showname="Destination port: http (80)" size="2" pos="36" show="80" value="0050"/>
    <field name="tcp.port" showname="Source or Destination Port: 51490" hide="yes" size="2" pos="34" show="51490" value="c922"/>
    <field name="tcp.port" showname="Source or Destination Port: 80" hide="yes" size="2" pos="36" show="80" value="0050"/>
    <field name="tcp.stream" showname="Stream index: 6" size="0" pos="34" show="6"/>
    <field name="tcp.len" showname="TCP Segment Len: 0" hide="yes" size="1" pos="46" show="0" value="80"/>
    <field name="tcp.seq" showname="Sequence number: 748    (relative sequence number)" size="4" pos="38" show="748" value="13800beb"/>
    <field name="tcp.ack" showname="Acknowledgment number: 648    (relative ack number)" size="4" pos="42" show="648" value="28afc033"/>
    <field name="tcp.hdr_len" showname="Header length: 32 bytes" size="1" pos="46" show="32" value="80"/>
    <field name="tcp.flags" showname="Flags: 0x010 (ACK)" size="2" pos="46" show="0x0010" value="10" unmaskedvalue="8010">
      <field name="tcp.flags.res" showname="000. .... .... = Reserved: Not set" size="1" pos="46" show="0" value="0" unmaskedvalue="80"/>
      <field name="tcp.flags.ns" showname="...0 .... .... = Nonce: Not set" size="1" pos="46" show="0" value="0" unmaskedvalue="80"/>
      <field name="tcp.flags.cwr" showname=".... 0... .... = Congestion Window Reduced (CWR): Not set" size="1" pos="47" show="0" value="0" unmaskedvalue="10"/>
      <field name="tcp.flags.ecn" showname=".... .0.. .... = ECN-Echo: Not set" size="1" pos="47" show="0" value="0" unmaskedvalue="10"/>
      <field name="tcp.flags.urg" showname=".... ..0. .... = Urgent: Not set" size="1" pos="47" show="0" value="0" unmaskedvalue="10"/>
      <field name="tcp.flags.ack" showname=".... ...1 .... = Acknowledgment: Set" size="1" pos="47" show="1" value="1" unmaskedvalue="10"/>
      <field name="tcp.flags.push" showname=".... .... 0... = Push: Not set" size="1" pos="47" show="0" value="0" unmaskedvalue="10"/>
      <field name="tcp.flags.reset" showname=".... .... .0.. = Reset: Not set" size="1" pos="47" show="0" value="0" unmaskedvalue="10"/>
      <field name="tcp.flags.syn" showname=".... .... ..0. = Syn: Not set" size="1" pos="47" show="0" value="0" unmaskedvalue="10"/>
      <field name="tcp.flags.fin" showname=".... .... ...0 = Fin: Not set" size="1" pos="47" show="0" value="0" unmaskedvalue="10"/>
    </field>
    <field name="tcp.window_size_value" showname="Window size value: 245" size="2" pos="48" show="245" value="00f5"/>
    <field name="tcp.window_size" showname="Calculated window size: 31360" size="2" pos="48" show="31360" value="00f5"/>
    <field name="tcp.window_size_scalefactor" showname="Window size scaling factor: 128" size="2" pos="48" show="128" value="00f5"/>
    <field name="tcp.checksum" showname="Checksum: 0x5f6c [validation disabled]" size="2" pos="50" show="0x5f6c" value="5f6c">
      <field name="tcp.checksum_good" showname="Good Checksum: False" size="2" pos="50" show="0" value="5f6c"/>
      <field name="tcp.checksum_bad" showname="Bad Checksum: False" size="2" pos="50" show="0" value="5f6c"/>
    </field>
    <field name="tcp.options" showname="Options: (12 bytes), No-Operation (NOP), No-Operation (NOP), Timestamps" size="12" pos="54" show="01:01:08:0a:00:a3:c0:14:4b:b7:75:9b" value="0101080a00a3c0144bb7759b">
      <field name="" show="No-Operation (NOP)" size="1" pos="54" value="01">
        <field name="tcp.options.type" showname="Type: 1" size="1" pos="54" show="1" value="01">
          <field name="tcp.options.type.copy" showname="0... .... = Copy on fragmentation: No" size="1" pos="54" show="0" value="0" unmaskedvalue="01"/>
          <field name="tcp.options.type.class" showname=".00. .... = Class: Control (0)" size="1" pos="54" show="0" value="0" unmaskedvalue="01"/>
          <field name="tcp.options.type.number" showname="...0 0001 = Number: No-Operation (NOP) (1)" size="1" pos="54" show="1" value="1" unmaskedvalue="01"/>
        </field>
      </field>
      <field name="" show="No-Operation (NOP)" size="1" pos="55" value="01">
        <field name="tcp.options.type" showname="Type: 1" size="1" pos="55" show="1" value="01">
          <field name="tcp.options.type.copy" showname="0... .... = Copy on fragmentation: No" size="1" pos="55" show="0" value="0" unmaskedvalue="01"/>
          <field name="tcp.options.type.class" showname=".00. .... = Class: Control (0)" size="1" pos="55" show="0" value="0" unmaskedvalue="01"/>
          <field name="tcp.options.type.number" showname="...0 0001 = Number: No-Operation (NOP) (1)" size="1" pos="55" show="1" value="1" unmaskedvalue="01"/>
        </field>
      </field>
      <field name="" show="Timestamps: TSval 10731540, TSecr 1270314395" size="10" pos="56" value="080a00a3c0144bb7759b">
        <field name="tcp.option_kind" showname="Kind: Timestamp (8)" size="1" pos="56" show="8" value="08"/>
        <field name="tcp.option_len" showname="Length: 10" size="1" pos="57" show="10" value="0a"/>
        <field name="tcp.options.timestamp.tsval" showname="Timestamp value: 10731540" size="4" pos="58" show="10731540" value="00a3c014"/>
        <field name="tcp.options.timestamp.tsecr" showname="Timestamp echo reply: 1270314395" size="4" pos="62" show="1270314395" value="4bb7759b"/>
      </field>
    </field>
    <field name="tcp.analysis" showname="SEQ/ACK analysis" size="0" pos="34" show="" value="">
      <field name="tcp.analysis.acks_frame" showname="This is an ACK to the segment in frame: 205" size="0" pos="34" show="205"/>
      <field name="tcp.analysis.ack_rtt" showname="The RTT to ACK the segment was: 0.000058000 seconds" size="0" pos="34" show="0.000058000"/>
    </field>
  </proto>
</packet>

<packet>
  <proto name="geninfo" pos="0" showname="General information" size="66">
    <field name="num" pos="0" show="339" showname="Number" value="153" size="66"/>
    <field name="len" pos="0" show="66" showname="Frame Length" value="42" size="66"/>
    <field name="caplen" pos="0" show="66" showname="Captured Length" value="42" size="66"/>
    <field name="timestamp" pos="0" show="Jan  3, 2014 20:55:10.522113000 NST" showname="Captured Time" value="1388795110.522113000" size="66"/>
  </proto>
  <proto name="frame" showname="Frame 339: 66 bytes on wire (528 bits), 66 bytes captured (528 bits) on interface 0" size="66" pos="0">
    <field name="frame.interface_id" showname="Interface id: 0" size="0" pos="0" show="0"/>
    <field name="frame.encap_type" showname="Encapsulation type: Ethernet (1)" size="0" pos="0" show="1"/>
    <field name="frame.time" showname="Arrival Time: Jan  3, 2014 20:55:10.522113000 NST" size="0" pos="0" show="Jan  3, 2014 20:55:10.522113000"/>
    <field name="frame.offset_shift" showname="Time shift for this packet: 0.000000000 seconds" size="0" pos="0" show="0.000000000"/>
    <field name="frame.time_epoch" showname="Epoch Time: 1388795110.522113000 seconds" size="0" pos="0" show="1388795110.522113000"/>
    <field name="frame.time_delta" showname="Time delta from previous captured frame: 5.176440000 seconds" size="0" pos="0" show="5.176440000"/>
    <field name="frame.time_delta_displayed" showname="Time delta from previous displayed frame: 15.016345000 seconds" size="0" pos="0" show="15.016345000"/>
    <field name="frame.time_relative" showname="Time since reference or first frame: 131.549173000 seconds" size="0" pos="0" show="131.549173000"/>
    <field name="frame.number" showname="Frame Number: 339" size="0" pos="0" show="339"/>
    <field name="frame.len" showname="Frame Length: 66 bytes (528 bits)" size="0" pos="0" show="66"/>
    <field name="frame.cap_len" showname="Capture Length: 66 bytes (528 bits)" size="0" pos="0" show="66"/>
    <field name="frame.marked" showname="Frame is marked: True" size="0" pos="0" show="1"/>
    <field name="frame.ignored" showname="Frame is ignored: False" size="0" pos="0" show="0"/>
    <field name="frame.protocols" showname="Protocols in frame: eth:ip:tcp" size="0" pos="0" show="eth:ip:tcp"/>
    <field name="frame.coloring_rule.name" showname="Coloring Rule Name: HTTP" size="0" pos="0" show="HTTP"/>
    <field name="frame.coloring_rule.string" showname="Coloring Rule String: http || tcp.port == 80" size="0" pos="0" show="http || tcp.port == 80"/>
  </proto>
  <proto name="eth" showname="Ethernet II, Src: AsustekC_f6:97:3e (e0:cb:4e:f6:97:3e), Dst: Pegatron_2f:4d:48 (4c:72:b9:2f:4d:48)" size="14" pos="0">
    <field name="eth.dst" showname="Destination: Pegatron_2f:4d:48 (4c:72:b9:2f:4d:48)" size="6" pos="0" show="4c:72:b9:2f:4d:48" value="4c72b92f4d48">
      <field name="eth.addr" showname="Address: Pegatron_2f:4d:48 (4c:72:b9:2f:4d:48)" size="6" pos="0" show="4c:72:b9:2f:4d:48" value="4c72b92f4d48"/>
      <field name="eth.lg" showname=".... ..0. .... .... .... .... = LG bit: Globally unique address (factory default)" size="3" pos="0" show="0" value="0" unmaskedvalue="4c72b9"/>
      <field name="eth.ig" showname=".... ...0 .... .... .... .... = IG bit: Individual address (unicast)" size="3" pos="0" show="0" value="0" unmaskedvalue="4c72b9"/>
    </field>
    <field name="eth.src" showname="Source: AsustekC_f6:97:3e (e0:cb:4e:f6:97:3e)" size="6" pos="6" show="e0:cb:4e:f6:97:3e" value="e0cb4ef6973e">
      <field name="eth.addr" showname="Address: AsustekC_f6:97:3e (e0:cb:4e:f6:97:3e)" size="6" pos="6" show="e0:cb:4e:f6:97:3e" value="e0cb4ef6973e"/>
      <field name="eth.lg" showname=".... ..0. .... .... .... .... = LG bit: Globally unique address (factory default)" size="3" pos="6" show="0" value="0" unmaskedvalue="e0cb4e"/>
      <field name="eth.ig" showname=".... ...0 .... .... .... .... = IG bit: Individual address (unicast)" size="3" pos="6" show="0" value="0" unmaskedvalue="e0cb4e"/>
    </field>
    <field name="eth.type" showname="Type: IP (0x0800)" size="2" pos="12" show="0x0800" value="0800"/>
  </proto>
  <proto name="ip" showname="Internet Protocol Version 4, Src: 134.153.48.5 (134.153.48.5), Dst: 10.48.1.195 (10.48.1.195)" size="20" pos="14">
    <field name="ip.version" showname="Version: 4" size="1" pos="14" show="4" value="45"/>
    <field name="ip.hdr_len" showname="Header length: 20 bytes" size="1" pos="14" show="20" value="45"/>
    <field name="ip.dsfield" showname="Differentiated Services Field: 0x00 (DSCP 0x00: Default; ECN: 0x00: Not-ECT (Not ECN-Capable Transport))" size="1" pos="15" show="0" value="00">
      <field name="ip.dsfield.dscp" showname="0000 00.. = Differentiated Services Codepoint: Default (0x00)" size="1" pos="15" show="0x00" value="0" unmaskedvalue="00"/>
      <field name="ip.dsfield.ecn" showname=".... ..00 = Explicit Congestion Notification: Not-ECT (Not ECN-Capable Transport) (0x00)" size="1" pos="15" show="0x00" value="0" unmaskedvalue="00"/>
    </field>
    <field name="ip.len" showname="Total Length: 52" size="2" pos="16" show="52" value="0034"/>
    <field name="ip.id" showname="Identification: 0x1b0a (6922)" size="2" pos="18" show="0x1b0a" value="1b0a"/>
    <field name="ip.flags" showname="Flags: 0x02 (Don&apos;t Fragment)" size="1" pos="20" show="0x02" value="40">
      <field name="ip.flags.rb" showname="0... .... = Reserved bit: Not set" size="1" pos="20" show="0" value="40"/>
      <field name="ip.flags.df" showname=".1.. .... = Don&apos;t fragment: Set" size="1" pos="20" show="1" value="40"/>
      <field name="ip.flags.mf" showname="..0. .... = More fragments: Not set" size="1" pos="20" show="0" value="40"/>
    </field>
    <field name="ip.frag_offset" showname="Fragment offset: 0" size="2" pos="20" show="0" value="4000"/>
    <field name="ip.ttl" showname="Time to live: 56" size="1" pos="22" show="56" value="38"/>
    <field name="ip.proto" showname="Protocol: TCP (6)" size="1" pos="23" show="6" value="06"/>
    <field name="ip.checksum" showname="Header checksum: 0x6529 [correct]" size="2" pos="24" show="0x6529" value="6529">
      <field name="ip.checksum_good" showname="Good: True" size="2" pos="24" show="1" value="6529"/>
      <field name="ip.checksum_bad" showname="Bad: False" size="2" pos="24" show="0" value="6529"/>
    </field>
    <field name="ip.src" showname="Source: 134.153.48.5 (134.153.48.5)" size="4" pos="26" show="134.153.48.5" value="86993005"/>
    <field name="ip.addr" showname="Source or Destination Address: 134.153.48.5 (134.153.48.5)" hide="yes" size="4" pos="26" show="134.153.48.5" value="86993005"/>
    <field name="ip.src_host" showname="Source Host: 134.153.48.5" hide="yes" size="4" pos="26" show="134.153.48.5" value="86993005"/>
    <field name="ip.host" showname="Source or Destination Host: 134.153.48.5" hide="yes" size="4" pos="26" show="134.153.48.5" value="86993005"/>
    <field name="ip.dst" showname="Destination: 10.48.1.195 (10.48.1.195)" size="4" pos="30" show="10.48.1.195" value="0a3001c3"/>
    <field name="ip.addr" showname="Source or Destination Address: 10.48.1.195 (10.48.1.195)" hide="yes" size="4" pos="30" show="10.48.1.195" value="0a3001c3"/>
    <field name="ip.dst_host" showname="Destination Host: 10.48.1.195" hide="yes" size="4" pos="30" show="10.48.1.195" value="0a3001c3"/>
    <field name="ip.host" showname="Source or Destination Host: 10.48.1.195" hide="yes" size="4" pos="30" show="10.48.1.195" value="0a3001c3"/>
    <field name="" show="Source GeoIP: Unknown" size="4" pos="26" value="86993005"/>
    <field name="" show="Destination GeoIP: Unknown" size="4" pos="30" value="0a3001c3"/>
  </proto>
  <proto name="tcp" showname="Transmission Control Protocol, Src Port: http (80), Dst Port: 51490 (51490), Seq: 648, Ack: 748, Len: 0" size="32" pos="34">
    <field name="tcp.srcport" showname="Source port: http (80)" size="2" pos="34" show="80" value="0050"/>
    <field name="tcp.dstport" showname="Destination port: 51490 (51490)" size="2" pos="36" show="51490" value="c922"/>
    <field name="tcp.port" showname="Source or Destination Port: 80" hide="yes" size="2" pos="34" show="80" value="0050"/>
    <field name="tcp.port" showname="Source or Destination Port: 51490" hide="yes" size="2" pos="36" show="51490" value="c922"/>
    <field name="tcp.stream" showname="Stream index: 6" size="0" pos="34" show="6"/>
    <field name="tcp.len" showname="TCP Segment Len: 0" hide="yes" size="1" pos="46" show="0" value="80"/>
    <field name="tcp.seq" showname="Sequence number: 648    (relative sequence number)" size="4" pos="38" show="648" value="28afc033"/>
    <field name="tcp.ack" showname="Acknowledgment number: 748    (relative ack number)" size="4" pos="42" show="748" value="13800beb"/>
    <field name="tcp.hdr_len" showname="Header length: 32 bytes" size="1" pos="46" show="32" value="80"/>
    <field name="tcp.flags" showname="Flags: 0x011 (FIN, ACK)" size="2" pos="46" show="0x0011" value="11" unmaskedvalue="8011">
      <field name="tcp.flags.res" showname="000. .... .... = Reserved: Not set" size="1" pos="46" show="0" value="0" unmaskedvalue="80"/>
      <field name="tcp.flags.ns" showname="...0 .... .... = Nonce: Not set" size="1" pos="46" show="0" value="0" unmaskedvalue="80"/>
      <field name="tcp.flags.cwr" showname=".... 0... .... = Congestion Window Reduced (CWR): Not set" size="1" pos="47" show="0" value="0" unmaskedvalue="11"/>
      <field name="tcp.flags.ecn" showname=".... .0.. .... = ECN-Echo: Not set" size="1" pos="47" show="0" value="0" unmaskedvalue="11"/>
      <field name="tcp.flags.urg" showname=".... ..0. .... = Urgent: Not set" size="1" pos="47" show="0" value="0" unmaskedvalue="11"/>
      <field name="tcp.flags.ack" showname=".... ...1 .... = Acknowledgment: Set" size="1" pos="47" show="1" value="1" unmaskedvalue="11"/>
      <field name="tcp.flags.push" showname=".... .... 0... = Push: Not set" size="1" pos="47" show="0" value="0" unmaskedvalue="11"/>
      <field name="tcp.flags.reset" showname=".... .... .0.. = Reset: Not set" size="1" pos="47" show="0" value="0" unmaskedvalue="11"/>
      <field name="tcp.flags.syn" showname=".... .... ..0. = Syn: Not set" size="1" pos="47" show="0" value="0" unmaskedvalue="11"/>
      <field name="tcp.flags.fin" showname=".... .... ...1 = Fin: Set" size="1" pos="47" show="1" value="1" unmaskedvalue="11">
        <field name="expert" showname="Expert Info (Chat/Sequence): Connection finish (FIN)" size="0" pos="47">
          <field name="expert.message" showname="Message: Connection finish (FIN)" size="0" pos="0" show="Connection finish (FIN)"/>
          <field name="expert.severity" showname="Severity level: Chat" size="0" pos="0" show="0x00200000"/>
          <field name="expert.group" showname="Group: Sequence" size="0" pos="0" show="0x02000000"/>
        </field>
      </field>
    </field>
    <field name="tcp.window_size_value" showname="Window size value: 130" size="2" pos="48" show="130" value="0082"/>
    <field name="tcp.window_size" showname="Calculated window size: 16640" size="2" pos="48" show="16640" value="0082"/>
    <field name="tcp.window_size_scalefactor" showname="Window size scaling factor: 128" size="2" pos="48" show="128" value="0082"/>
    <field name="tcp.checksum" showname="Checksum: 0x5139 [validation disabled]" size="2" pos="50" show="0x5139" value="5139">
      <field name="tcp.checksum_good" showname="Good Checksum: False" size="2" pos="50" show="0" value="5139"/>
      <field name="tcp.checksum_bad" showname="Bad Checksum: False" size="2" pos="50" show="0" value="5139"/>
    </field>
    <field name="tcp.options" showname="Options: (12 bytes), No-Operation (NOP), No-Operation (NOP), Timestamps" size="12" pos="54" show="01:01:08:0a:4b:b7:84:40:00:a3:c0:14" value="0101080a4bb7844000a3c014">
      <field name="" show="No-Operation (NOP)" size="1" pos="54" value="01">
        <field name="tcp.options.type" showname="Type: 1" size="1" pos="54" show="1" value="01">
          <field name="tcp.options.type.copy" showname="0... .... = Copy on fragmentation: No" size="1" pos="54" show="0" value="0" unmaskedvalue="01"/>
          <field name="tcp.options.type.class" showname=".00. .... = Class: Control (0)" size="1" pos="54" show="0" value="0" unmaskedvalue="01"/>
          <field name="tcp.options.type.number" showname="...0 0001 = Number: No-Operation (NOP) (1)" size="1" pos="54" show="1" value="1" unmaskedvalue="01"/>
        </field>
      </field>
      <field name="" show="No-Operation (NOP)" size="1" pos="55" value="01">
        <field name="tcp.options.type" showname="Type: 1" size="1" pos="55" show="1" value="01">
          <field name="tcp.options.type.copy" showname="0... .... = Copy on fragmentation: No" size="1" pos="55" show="0" value="0" unmaskedvalue="01"/>
          <field name="tcp.options.type.class" showname=".00. .... = Class: Control (0)" size="1" pos="55" show="0" value="0" unmaskedvalue="01"/>
          <field name="tcp.options.type.number" showname="...0 0001 = Number: No-Operation (NOP) (1)" size="1" pos="55" show="1" value="1" unmaskedvalue="01"/>
        </field>
      </field>
      <field name="" show="Timestamps: TSval 1270318144, TSecr 10731540" size="10" pos="56" value="080a4bb7844000a3c014">
        <field name="tcp.option_kind" showname="Kind: Timestamp (8)" size="1" pos="56" show="8" value="08"/>
        <field name="tcp.option_len" showname="Length: 10" size="1" pos="57" show="10" value="0a"/>
        <field name="tcp.options.timestamp.tsval" showname="Timestamp value: 1270318144" size="4" pos="58" show="1270318144" value="4bb78440"/>
        <field name="tcp.options.timestamp.tsecr" showname="Timestamp echo reply: 10731540" size="4" pos="62" show="10731540" value="00a3c014"/>
      </field>
    </field>
  </proto>
</packet>

<packet>
  <proto name="geninfo" pos="0" showname="General information" size="66">
    <field name="num" pos="0" show="340" showname="Number" value="154" size="66"/>
    <field name="len" pos="0" show="66" showname="Frame Length" value="42" size="66"/>
    <field name="caplen" pos="0" show="66" showname="Captured Length" value="42" size="66"/>
    <field name="timestamp" pos="0" show="Jan  3, 2014 20:55:10.558409000 NST" showname="Captured Time" value="1388795110.558409000" size="66"/>
  </proto>
  <proto name="frame" showname="Frame 340: 66 bytes on wire (528 bits), 66 bytes captured (528 bits) on interface 0" size="66" pos="0">
    <field name="frame.interface_id" showname="Interface id: 0" size="0" pos="0" show="0"/>
    <field name="frame.encap_type" showname="Encapsulation type: Ethernet (1)" size="0" pos="0" show="1"/>
    <field name="frame.time" showname="Arrival Time: Jan  3, 2014 20:55:10.558409000 NST" size="0" pos="0" show="Jan  3, 2014 20:55:10.558409000"/>
    <field name="frame.offset_shift" showname="Time shift for this packet: 0.000000000 seconds" size="0" pos="0" show="0.000000000"/>
    <field name="frame.time_epoch" showname="Epoch Time: 1388795110.558409000 seconds" size="0" pos="0" show="1388795110.558409000"/>
    <field name="frame.time_delta" showname="Time delta from previous captured frame: 0.036296000 seconds" size="0" pos="0" show="0.036296000"/>
    <field name="frame.time_delta_displayed" showname="Time delta from previous displayed frame: 0.036296000 seconds" size="0" pos="0" show="0.036296000"/>
    <field name="frame.time_relative" showname="Time since reference or first frame: 131.585469000 seconds" size="0" pos="0" show="131.585469000"/>
    <field name="frame.number" showname="Frame Number: 340" size="0" pos="0" show="340"/>
    <field name="frame.len" showname="Frame Length: 66 bytes (528 bits)" size="0" pos="0" show="66"/>
    <field name="frame.cap_len" showname="Capture Length: 66 bytes (528 bits)" size="0" pos="0" show="66"/>
    <field name="frame.marked" showname="Frame is marked: True" size="0" pos="0" show="1"/>
    <field name="frame.ignored" showname="Frame is ignored: False" size="0" pos="0" show="0"/>
    <field name="frame.protocols" showname="Protocols in frame: eth:ip:tcp" size="0" pos="0" show="eth:ip:tcp"/>
    <field name="frame.coloring_rule.name" showname="Coloring Rule Name: HTTP" size="0" pos="0" show="HTTP"/>
    <field name="frame.coloring_rule.string" showname="Coloring Rule String: http || tcp.port == 80" size="0" pos="0" show="http || tcp.port == 80"/>
  </proto>
  <proto name="eth" showname="Ethernet II, Src: Pegatron_2f:4d:48 (4c:72:b9:2f:4d:48), Dst: AsustekC_f6:97:3e (e0:cb:4e:f6:97:3e)" size="14" pos="0">
    <field name="eth.dst" showname="Destination: AsustekC_f6:97:3e (e0:cb:4e:f6:97:3e)" size="6" pos="0" show="e0:cb:4e:f6:97:3e" value="e0cb4ef6973e">
      <field name="eth.addr" showname="Address: AsustekC_f6:97:3e (e0:cb:4e:f6:97:3e)" size="6" pos="0" show="e0:cb:4e:f6:97:3e" value="e0cb4ef6973e"/>
      <field name="eth.lg" showname=".... ..0. .... .... .... .... = LG bit: Globally unique address (factory default)" size="3" pos="0" show="0" value="0" unmaskedvalue="e0cb4e"/>
      <field name="eth.ig" showname=".... ...0 .... .... .... .... = IG bit: Individual address (unicast)" size="3" pos="0" show="0" value="0" unmaskedvalue="e0cb4e"/>
    </field>
    <field name="eth.src" showname="Source: Pegatron_2f:4d:48 (4c:72:b9:2f:4d:48)" size="6" pos="6" show="4c:72:b9:2f:4d:48" value="4c72b92f4d48">
      <field name="eth.addr" showname="Address: Pegatron_2f:4d:48 (4c:72:b9:2f:4d:48)" size="6" pos="6" show="4c:72:b9:2f:4d:48" value="4c72b92f4d48"/>
      <field name="eth.lg" showname=".... ..0. .... .... .... .... = LG bit: Globally unique address (factory default)" size="3" pos="6" show="0" value="0" unmaskedvalue="4c72b9"/>
      <field name="eth.ig" showname=".... ...0 .... .... .... .... = IG bit: Individual address (unicast)" size="3" pos="6" show="0" value="0" unmaskedvalue="4c72b9"/>
    </field>
    <field name="eth.type" showname="Type: IP (0x0800)" size="2" pos="12" show="0x0800" value="0800"/>
  </proto>
  <proto name="ip" showname="Internet Protocol Version 4, Src: 10.48.1.195 (10.48.1.195), Dst: 134.153.48.5 (134.153.48.5)" size="20" pos="14">
    <field name="ip.version" showname="Version: 4" size="1" pos="14" show="4" value="45"/>
    <field name="ip.hdr_len" showname="Header length: 20 bytes" size="1" pos="14" show="20" value="45"/>
    <field name="ip.dsfield" showname="Differentiated Services Field: 0x00 (DSCP 0x00: Default; ECN: 0x00: Not-ECT (Not ECN-Capable Transport))" size="1" pos="15" show="0" value="00">
      <field name="ip.dsfield.dscp" showname="0000 00.. = Differentiated Services Codepoint: Default (0x00)" size="1" pos="15" show="0x00" value="0" unmaskedvalue="00"/>
      <field name="ip.dsfield.ecn" showname=".... ..00 = Explicit Congestion Notification: Not-ECT (Not ECN-Capable Transport) (0x00)" size="1" pos="15" show="0x00" value="0" unmaskedvalue="00"/>
    </field>
    <field name="ip.len" showname="Total Length: 52" size="2" pos="16" show="52" value="0034"/>
    <field name="ip.id" showname="Identification: 0xb71b (46875)" size="2" pos="18" show="0xb71b" value="b71b"/>
    <field name="ip.flags" showname="Flags: 0x02 (Don&apos;t Fragment)" size="1" pos="20" show="0x02" value="40">
      <field name="ip.flags.rb" showname="0... .... = Reserved bit: Not set" size="1" pos="20" show="0" value="40"/>
      <field name="ip.flags.df" showname=".1.. .... = Don&apos;t fragment: Set" size="1" pos="20" show="1" value="40"/>
      <field name="ip.flags.mf" showname="..0. .... = More fragments: Not set" size="1" pos="20" show="0" value="40"/>
    </field>
    <field name="ip.frag_offset" showname="Fragment offset: 0" size="2" pos="20" show="0" value="4000"/>
    <field name="ip.ttl" showname="Time to live: 64" size="1" pos="22" show="64" value="40"/>
    <field name="ip.proto" showname="Protocol: TCP (6)" size="1" pos="23" show="6" value="06"/>
    <field name="ip.checksum" showname="Header checksum: 0xc117 [correct]" size="2" pos="24" show="0xc117" value="c117">
      <field name="ip.checksum_good" showname="Good: True" size="2" pos="24" show="1" value="c117"/>
      <field name="ip.checksum_bad" showname="Bad: False" size="2" pos="24" show="0" value="c117"/>
    </field>
    <field name="ip.src" showname="Source: 10.48.1.195 (10.48.1.195)" size="4" pos="26" show="10.48.1.195" value="0a3001c3"/>
    <field name="ip.addr" showname="Source or Destination Address: 10.48.1.195 (10.48.1.195)" hide="yes" size="4" pos="26" show="10.48.1.195" value="0a3001c3"/>
    <field name="ip.src_host" showname="Source Host: 10.48.1.195" hide="yes" size="4" pos="26" show="10.48.1.195" value="0a3001c3"/>
    <field name="ip.host" showname="Source or Destination Host: 10.48.1.195" hide="yes" size="4" pos="26" show="10.48.1.195" value="0a3001c3"/>
    <field name="ip.dst" showname="Destination: 134.153.48.5 (134.153.48.5)" size="4" pos="30" show="134.153.48.5" value="86993005"/>
    <field name="ip.addr" showname="Source or Destination Address: 134.153.48.5 (134.153.48.5)" hide="yes" size="4" pos="30" show="134.153.48.5" value="86993005"/>
    <field name="ip.dst_host" showname="Destination Host: 134.153.48.5" hide="yes" size="4" pos="30" show="134.153.48.5" value="86993005"/>
    <field name="ip.host" showname="Source or Destination Host: 134.153.48.5" hide="yes" size="4" pos="30" show="134.153.48.5" value="86993005"/>
    <field name="" show="Source GeoIP: Unknown" size="4" pos="26" value="0a3001c3"/>
    <field name="" show="Destination GeoIP: Unknown" size="4" pos="30" value="86993005"/>
  </proto>
  <proto name="tcp" showname="Transmission Control Protocol, Src Port: 51490 (51490), Dst Port: http (80), Seq: 748, Ack: 649, Len: 0" size="32" pos="34">
    <field name="tcp.srcport" showname="Source port: 51490 (51490)" size="2" pos="34" show="51490" value="c922"/>
    <field name="tcp.dstport" showname="Destination port: http (80)" size="2" pos="36" show="80" value="0050"/>
    <field name="tcp.port" showname="Source or Destination Port: 51490" hide="yes" size="2" pos="34" show="51490" value="c922"/>
    <field name="tcp.port" showname="Source or Destination Port: 80" hide="yes" size="2" pos="36" show="80" value="0050"/>
    <field name="tcp.stream" showname="Stream index: 6" size="0" pos="34" show="6"/>
    <field name="tcp.len" showname="TCP Segment Len: 0" hide="yes" size="1" pos="46" show="0" value="80"/>
    <field name="tcp.seq" showname="Sequence number: 748    (relative sequence number)" size="4" pos="38" show="748" value="13800beb"/>
    <field name="tcp.ack" showname="Acknowledgment number: 649    (relative ack number)" size="4" pos="42" show="649" value="28afc034"/>
    <field name="tcp.hdr_len" showname="Header length: 32 bytes" size="1" pos="46" show="32" value="80"/>
    <field name="tcp.flags" showname="Flags: 0x010 (ACK)" size="2" pos="46" show="0x0010" value="10" unmaskedvalue="8010">
      <field name="tcp.flags.res" showname="000. .... .... = Reserved: Not set" size="1" pos="46" show="0" value="0" unmaskedvalue="80"/>
      <field name="tcp.flags.ns" showname="...0 .... .... = Nonce: Not set" size="1" pos="46" show="0" value="0" unmaskedvalue="80"/>
      <field name="tcp.flags.cwr" showname=".... 0... .... = Congestion Window Reduced (CWR): Not set" size="1" pos="47" show="0" value="0" unmaskedvalue="10"/>
      <field name="tcp.flags.ecn" showname=".... .0.. .... = ECN-Echo: Not set" size="1" pos="47" show="0" value="0" unmaskedvalue="10"/>
      <field name="tcp.flags.urg" showname=".... ..0. .... = Urgent: Not set" size="1" pos="47" show="0" value="0" unmaskedvalue="10"/>
      <field name="tcp.flags.ack" showname=".... ...1 .... = Acknowledgment: Set" size="1" pos="47" show="1" value="1" unmaskedvalue="10"/>
      <field name="tcp.flags.push" showname=".... .... 0... = Push: Not set" size="1" pos="47" show="0" value="0" unmaskedvalue="10"/>
      <field name="tcp.flags.reset" showname=".... .... .0.. = Reset: Not set" size="1" pos="47" show="0" value="0" unmaskedvalue="10"/>
      <field name="tcp.flags.syn" showname=".... .... ..0. = Syn: Not set" size="1" pos="47" show="0" value="0" unmaskedvalue="10"/>
      <field name="tcp.flags.fin" showname=".... .... ...0 = Fin: Not set" size="1" pos="47" show="0" value="0" unmaskedvalue="10"/>
    </field>
    <field name="tcp.window_size_value" showname="Window size value: 245" size="2" pos="48" show="245" value="00f5"/>
    <field name="tcp.window_size" showname="Calculated window size: 31360" size="2" pos="48" show="31360" value="00f5"/>
    <field name="tcp.window_size_scalefactor" showname="Window size scaling factor: 128" size="2" pos="48" show="128" value="00f5"/>
    <field name="tcp.checksum" showname="Checksum: 0x4212 [validation disabled]" size="2" pos="50" show="0x4212" value="4212">
      <field name="tcp.checksum_good" showname="Good Checksum: False" size="2" pos="50" show="0" value="4212"/>
      <field name="tcp.checksum_bad" showname="Bad Checksum: False" size="2" pos="50" show="0" value="4212"/>
    </field>
    <field name="tcp.options" showname="Options: (12 bytes), No-Operation (NOP), No-Operation (NOP), Timestamps" size="12" pos="54" show="01:01:08:0a:00:a3:ce:c8:4b:b7:84:40" value="0101080a00a3cec84bb78440">
      <field name="" show="No-Operation (NOP)" size="1" pos="54" value="01">
        <field name="tcp.options.type" showname="Type: 1" size="1" pos="54" show="1" value="01">
          <field name="tcp.options.type.copy" showname="0... .... = Copy on fragmentation: No" size="1" pos="54" show="0" value="0" unmaskedvalue="01"/>
          <field name="tcp.options.type.class" showname=".00. .... = Class: Control (0)" size="1" pos="54" show="0" value="0" unmaskedvalue="01"/>
          <field name="tcp.options.type.number" showname="...0 0001 = Number: No-Operation (NOP) (1)" size="1" pos="54" show="1" value="1" unmaskedvalue="01"/>
        </field>
      </field>
      <field name="" show="No-Operation (NOP)" size="1" pos="55" value="01">
        <field name="tcp.options.type" showname="Type: 1" size="1" pos="55" show="1" value="01">
          <field name="tcp.options.type.copy" showname="0... .... = Copy on fragmentation: No" size="1" pos="55" show="0" value="0" unmaskedvalue="01"/>
          <field name="tcp.options.type.class" showname=".00. .... = Class: Control (0)" size="1" pos="55" show="0" value="0" unmaskedvalue="01"/>
          <field name="tcp.options.type.number" showname="...0 0001 = Number: No-Operation (NOP) (1)" size="1" pos="55" show="1" value="1" unmaskedvalue="01"/>
        </field>
      </field>
      <field name="" show="Timestamps: TSval 10735304, TSecr 1270318144" size="10" pos="56" value="080a00a3cec84bb78440">
        <field name="tcp.option_kind" showname="Kind: Timestamp (8)" size="1" pos="56" show="8" value="08"/>
        <field name="tcp.option_len" showname="Length: 10" size="1" pos="57" show="10" value="0a"/>
        <field name="tcp.options.timestamp.tsval" showname="Timestamp value: 10735304" size="4" pos="58" show="10735304" value="00a3cec8"/>
        <field name="tcp.options.timestamp.tsecr" showname="Timestamp echo reply: 1270318144" size="4" pos="62" show="1270318144" value="4bb78440"/>
      </field>
    </field>
    <field name="tcp.analysis" showname="SEQ/ACK analysis" size="0" pos="34" show="" value="">
      <field name="tcp.analysis.acks_frame" showname="This is an ACK to the segment in frame: 339" size="0" pos="34" show="339"/>
      <field name="tcp.analysis.ack_rtt" showname="The RTT to ACK the segment was: 0.036296000 seconds" size="0" pos="34" show="0.036296000"/>
    </field>
  </proto>
</packet>

<packet>
  <proto name="geninfo" pos="0" showname="General information" size="66">
    <field name="num" pos="0" show="341" showname="Number" value="155" size="66"/>
    <field name="len" pos="0" show="66" showname="Frame Length" value="42" size="66"/>
    <field name="caplen" pos="0" show="66" showname="Captured Length" value="42" size="66"/>
    <field name="timestamp" pos="0" show="Jan  3, 2014 20:55:15.352695000 NST" showname="Captured Time" value="1388795115.352695000" size="66"/>
  </proto>
  <proto name="frame" showname="Frame 341: 66 bytes on wire (528 bits), 66 bytes captured (528 bits) on interface 0" size="66" pos="0">
    <field name="frame.interface_id" showname="Interface id: 0" size="0" pos="0" show="0"/>
    <field name="frame.encap_type" showname="Encapsulation type: Ethernet (1)" size="0" pos="0" show="1"/>
    <field name="frame.time" showname="Arrival Time: Jan  3, 2014 20:55:15.352695000 NST" size="0" pos="0" show="Jan  3, 2014 20:55:15.352695000"/>
    <field name="frame.offset_shift" showname="Time shift for this packet: 0.000000000 seconds" size="0" pos="0" show="0.000000000"/>
    <field name="frame.time_epoch" showname="Epoch Time: 1388795115.352695000 seconds" size="0" pos="0" show="1388795115.352695000"/>
    <field name="frame.time_delta" showname="Time delta from previous captured frame: 4.794286000 seconds" size="0" pos="0" show="4.794286000"/>
    <field name="frame.time_delta_displayed" showname="Time delta from previous displayed frame: 4.794286000 seconds" size="0" pos="0" show="4.794286000"/>
    <field name="frame.time_relative" showname="Time since reference or first frame: 136.379755000 seconds" size="0" pos="0" show="136.379755000"/>
    <field name="frame.number" showname="Frame Number: 341" size="0" pos="0" show="341"/>
    <field name="frame.len" showname="Frame Length: 66 bytes (528 bits)" size="0" pos="0" show="66"/>
    <field name="frame.cap_len" showname="Capture Length: 66 bytes (528 bits)" size="0" pos="0" show="66"/>
    <field name="frame.marked" showname="Frame is marked: True" size="0" pos="0" show="1"/>
    <field name="frame.ignored" showname="Frame is ignored: False" size="0" pos="0" show="0"/>
    <field name="frame.protocols" showname="Protocols in frame: eth:ip:tcp" size="0" pos="0" show="eth:ip:tcp"/>
    <field name="frame.coloring_rule.name" showname="Coloring Rule Name: HTTP" size="0" pos="0" show="HTTP"/>
    <field name="frame.coloring_rule.string" showname="Coloring Rule String: http || tcp.port == 80" size="0" pos="0" show="http || tcp.port == 80"/>
  </proto>
  <proto name="eth" showname="Ethernet II, Src: Pegatron_2f:4d:48 (4c:72:b9:2f:4d:48), Dst: AsustekC_f6:97:3e (e0:cb:4e:f6:97:3e)" size="14" pos="0">
    <field name="eth.dst" showname="Destination: AsustekC_f6:97:3e (e0:cb:4e:f6:97:3e)" size="6" pos="0" show="e0:cb:4e:f6:97:3e" value="e0cb4ef6973e">
      <field name="eth.addr" showname="Address: AsustekC_f6:97:3e (e0:cb:4e:f6:97:3e)" size="6" pos="0" show="e0:cb:4e:f6:97:3e" value="e0cb4ef6973e"/>
      <field name="eth.lg" showname=".... ..0. .... .... .... .... = LG bit: Globally unique address (factory default)" size="3" pos="0" show="0" value="0" unmaskedvalue="e0cb4e"/>
      <field name="eth.ig" showname=".... ...0 .... .... .... .... = IG bit: Individual address (unicast)" size="3" pos="0" show="0" value="0" unmaskedvalue="e0cb4e"/>
    </field>
    <field name="eth.src" showname="Source: Pegatron_2f:4d:48 (4c:72:b9:2f:4d:48)" size="6" pos="6" show="4c:72:b9:2f:4d:48" value="4c72b92f4d48">
      <field name="eth.addr" showname="Address: Pegatron_2f:4d:48 (4c:72:b9:2f:4d:48)" size="6" pos="6" show="4c:72:b9:2f:4d:48" value="4c72b92f4d48"/>
      <field name="eth.lg" showname=".... ..0. .... .... .... .... = LG bit: Globally unique address (factory default)" size="3" pos="6" show="0" value="0" unmaskedvalue="4c72b9"/>
      <field name="eth.ig" showname=".... ...0 .... .... .... .... = IG bit: Individual address (unicast)" size="3" pos="6" show="0" value="0" unmaskedvalue="4c72b9"/>
    </field>
    <field name="eth.type" showname="Type: IP (0x0800)" size="2" pos="12" show="0x0800" value="0800"/>
  </proto>
  <proto name="ip" showname="Internet Protocol Version 4, Src: 10.48.1.195 (10.48.1.195), Dst: 134.153.48.5 (134.153.48.5)" size="20" pos="14">
    <field name="ip.version" showname="Version: 4" size="1" pos="14" show="4" value="45"/>
    <field name="ip.hdr_len" showname="Header length: 20 bytes" size="1" pos="14" show="20" value="45"/>
    <field name="ip.dsfield" showname="Differentiated Services Field: 0x00 (DSCP 0x00: Default; ECN: 0x00: Not-ECT (Not ECN-Capable Transport))" size="1" pos="15" show="0" value="00">
      <field name="ip.dsfield.dscp" showname="0000 00.. = Differentiated Services Codepoint: Default (0x00)" size="1" pos="15" show="0x00" value="0" unmaskedvalue="00"/>
      <field name="ip.dsfield.ecn" showname=".... ..00 = Explicit Congestion Notification: Not-ECT (Not ECN-Capable Transport) (0x00)" size="1" pos="15" show="0x00" value="0" unmaskedvalue="00"/>
    </field>
    <field name="ip.len" showname="Total Length: 52" size="2" pos="16" show="52" value="0034"/>
    <field name="ip.id" showname="Identification: 0xb71c (46876)" size="2" pos="18" show="0xb71c" value="b71c"/>
    <field name="ip.flags" showname="Flags: 0x02 (Don&apos;t Fragment)" size="1" pos="20" show="0x02" value="40">
      <field name="ip.flags.rb" showname="0... .... = Reserved bit: Not set" size="1" pos="20" show="0" value="40"/>
      <field name="ip.flags.df" showname=".1.. .... = Don&apos;t fragment: Set" size="1" pos="20" show="1" value="40"/>
      <field name="ip.flags.mf" showname="..0. .... = More fragments: Not set" size="1" pos="20" show="0" value="40"/>
    </field>
    <field name="ip.frag_offset" showname="Fragment offset: 0" size="2" pos="20" show="0" value="4000"/>
    <field name="ip.ttl" showname="Time to live: 64" size="1" pos="22" show="64" value="40"/>
    <field name="ip.proto" showname="Protocol: TCP (6)" size="1" pos="23" show="6" value="06"/>
    <field name="ip.checksum" showname="Header checksum: 0xc116 [correct]" size="2" pos="24" show="0xc116" value="c116">
      <field name="ip.checksum_good" showname="Good: True" size="2" pos="24" show="1" value="c116"/>
      <field name="ip.checksum_bad" showname="Bad: False" size="2" pos="24" show="0" value="c116"/>
    </field>
    <field name="ip.src" showname="Source: 10.48.1.195 (10.48.1.195)" size="4" pos="26" show="10.48.1.195" value="0a3001c3"/>
    <field name="ip.addr" showname="Source or Destination Address: 10.48.1.195 (10.48.1.195)" hide="yes" size="4" pos="26" show="10.48.1.195" value="0a3001c3"/>
    <field name="ip.src_host" showname="Source Host: 10.48.1.195" hide="yes" size="4" pos="26" show="10.48.1.195" value="0a3001c3"/>
    <field name="ip.host" showname="Source or Destination Host: 10.48.1.195" hide="yes" size="4" pos="26" show="10.48.1.195" value="0a3001c3"/>
    <field name="ip.dst" showname="Destination: 134.153.48.5 (134.153.48.5)" size="4" pos="30" show="134.153.48.5" value="86993005"/>
    <field name="ip.addr" showname="Source or Destination Address: 134.153.48.5 (134.153.48.5)" hide="yes" size="4" pos="30" show="134.153.48.5" value="86993005"/>
    <field name="ip.dst_host" showname="Destination Host: 134.153.48.5" hide="yes" size="4" pos="30" show="134.153.48.5" value="86993005"/>
    <field name="ip.host" showname="Source or Destination Host: 134.153.48.5" hide="yes" size="4" pos="30" show="134.153.48.5" value="86993005"/>
    <field name="" show="Source GeoIP: Unknown" size="4" pos="26" value="0a3001c3"/>
    <field name="" show="Destination GeoIP: Unknown" size="4" pos="30" value="86993005"/>
  </proto>
  <proto name="tcp" showname="Transmission Control Protocol, Src Port: 51490 (51490), Dst Port: http (80), Seq: 748, Ack: 649, Len: 0" size="32" pos="34">
    <field name="tcp.srcport" showname="Source port: 51490 (51490)" size="2" pos="34" show="51490" value="c922"/>
    <field name="tcp.dstport" showname="Destination port: http (80)" size="2" pos="36" show="80" value="0050"/>
    <field name="tcp.port" showname="Source or Destination Port: 51490" hide="yes" size="2" pos="34" show="51490" value="c922"/>
    <field name="tcp.port" showname="Source or Destination Port: 80" hide="yes" size="2" pos="36" show="80" value="0050"/>
    <field name="tcp.stream" showname="Stream index: 6" size="0" pos="34" show="6"/>
    <field name="tcp.len" showname="TCP Segment Len: 0" hide="yes" size="1" pos="46" show="0" value="80"/>
    <field name="tcp.seq" showname="Sequence number: 748    (relative sequence number)" size="4" pos="38" show="748" value="13800beb"/>
    <field name="tcp.ack" showname="Acknowledgment number: 649    (relative ack number)" size="4" pos="42" show="649" value="28afc034"/>
    <field name="tcp.hdr_len" showname="Header length: 32 bytes" size="1" pos="46" show="32" value="80"/>
    <field name="tcp.flags" showname="Flags: 0x011 (FIN, ACK)" size="2" pos="46" show="0x0011" value="11" unmaskedvalue="8011">
      <field name="tcp.flags.res" showname="000. .... .... = Reserved: Not set" size="1" pos="46" show="0" value="0" unmaskedvalue="80"/>
      <field name="tcp.flags.ns" showname="...0 .... .... = Nonce: Not set" size="1" pos="46" show="0" value="0" unmaskedvalue="80"/>
      <field name="tcp.flags.cwr" showname=".... 0... .... = Congestion Window Reduced (CWR): Not set" size="1" pos="47" show="0" value="0" unmaskedvalue="11"/>
      <field name="tcp.flags.ecn" showname=".... .0.. .... = ECN-Echo: Not set" size="1" pos="47" show="0" value="0" unmaskedvalue="11"/>
      <field name="tcp.flags.urg" showname=".... ..0. .... = Urgent: Not set" size="1" pos="47" show="0" value="0" unmaskedvalue="11"/>
      <field name="tcp.flags.ack" showname=".... ...1 .... = Acknowledgment: Set" size="1" pos="47" show="1" value="1" unmaskedvalue="11"/>
      <field name="tcp.flags.push" showname=".... .... 0... = Push: Not set" size="1" pos="47" show="0" value="0" unmaskedvalue="11"/>
      <field name="tcp.flags.reset" showname=".... .... .0.. = Reset: Not set" size="1" pos="47" show="0" value="0" unmaskedvalue="11"/>
      <field name="tcp.flags.syn" showname=".... .... ..0. = Syn: Not set" size="1" pos="47" show="0" value="0" unmaskedvalue="11"/>
      <field name="tcp.flags.fin" showname=".... .... ...1 = Fin: Set" size="1" pos="47" show="1" value="1" unmaskedvalue="11">
        <field name="expert" showname="Expert Info (Chat/Sequence): Connection finish (FIN)" size="0" pos="47">
          <field name="expert.message" showname="Message: Connection finish (FIN)" size="0" pos="0" show="Connection finish (FIN)"/>
          <field name="expert.severity" showname="Severity level: Chat" size="0" pos="0" show="0x00200000"/>
          <field name="expert.group" showname="Group: Sequence" size="0" pos="0" show="0x02000000"/>
        </field>
      </field>
    </field>
    <field name="tcp.window_size_value" showname="Window size value: 245" size="2" pos="48" show="245" value="00f5"/>
    <field name="tcp.window_size" showname="Calculated window size: 31360" size="2" pos="48" show="31360" value="00f5"/>
    <field name="tcp.window_size_scalefactor" showname="Window size scaling factor: 128" size="2" pos="48" show="128" value="00f5"/>
    <field name="tcp.checksum" showname="Checksum: 0x3d63 [validation disabled]" size="2" pos="50" show="0x3d63" value="3d63">
      <field name="tcp.checksum_good" showname="Good Checksum: False" size="2" pos="50" show="0" value="3d63"/>
      <field name="tcp.checksum_bad" showname="Bad Checksum: False" size="2" pos="50" show="0" value="3d63"/>
    </field>
    <field name="tcp.options" showname="Options: (12 bytes), No-Operation (NOP), No-Operation (NOP), Timestamps" size="12" pos="54" show="01:01:08:0a:00:a3:d3:76:4b:b7:84:40" value="0101080a00a3d3764bb78440">
      <field name="" show="No-Operation (NOP)" size="1" pos="54" value="01">
        <field name="tcp.options.type" showname="Type: 1" size="1" pos="54" show="1" value="01">
          <field name="tcp.options.type.copy" showname="0... .... = Copy on fragmentation: No" size="1" pos="54" show="0" value="0" unmaskedvalue="01"/>
          <field name="tcp.options.type.class" showname=".00. .... = Class: Control (0)" size="1" pos="54" show="0" value="0" unmaskedvalue="01"/>
          <field name="tcp.options.type.number" showname="...0 0001 = Number: No-Operation (NOP) (1)" size="1" pos="54" show="1" value="1" unmaskedvalue="01"/>
        </field>
      </field>
      <field name="" show="No-Operation (NOP)" size="1" pos="55" value="01">
        <field name="tcp.options.type" showname="Type: 1" size="1" pos="55" show="1" value="01">
          <field name="tcp.options.type.copy" showname="0... .... = Copy on fragmentation: No" size="1" pos="55" show="0" value="0" unmaskedvalue="01"/>
          <field name="tcp.options.type.class" showname=".00. .... = Class: Control (0)" size="1" pos="55" show="0" value="0" unmaskedvalue="01"/>
          <field name="tcp.options.type.number" showname="...0 0001 = Number: No-Operation (NOP) (1)" size="1" pos="55" show="1" value="1" unmaskedvalue="01"/>
        </field>
      </field>
      <field name="" show="Timestamps: TSval 10736502, TSecr 1270318144" size="10" pos="56" value="080a00a3d3764bb78440">
        <field name="tcp.option_kind" showname="Kind: Timestamp (8)" size="1" pos="56" show="8" value="08"/>
        <field name="tcp.option_len" showname="Length: 10" size="1" pos="57" show="10" value="0a"/>
        <field name="tcp.options.timestamp.tsval" showname="Timestamp value: 10736502" size="4" pos="58" show="10736502" value="00a3d376"/>
        <field name="tcp.options.timestamp.tsecr" showname="Timestamp echo reply: 1270318144" size="4" pos="62" show="1270318144" value="4bb78440"/>
      </field>
    </field>
  </proto>
</packet>

<packet>
  <proto name="geninfo" pos="0" showname="General information" size="66">
    <field name="num" pos="0" show="342" showname="Number" value="156" size="66"/>
    <field name="len" pos="0" show="66" showname="Frame Length" value="42" size="66"/>
    <field name="caplen" pos="0" show="66" showname="Captured Length" value="42" size="66"/>
    <field name="timestamp" pos="0" show="Jan  3, 2014 20:55:15.357905000 NST" showname="Captured Time" value="1388795115.357905000" size="66"/>
  </proto>
  <proto name="frame" showname="Frame 342: 66 bytes on wire (528 bits), 66 bytes captured (528 bits) on interface 0" size="66" pos="0">
    <field name="frame.interface_id" showname="Interface id: 0" size="0" pos="0" show="0"/>
    <field name="frame.encap_type" showname="Encapsulation type: Ethernet (1)" size="0" pos="0" show="1"/>
    <field name="frame.time" showname="Arrival Time: Jan  3, 2014 20:55:15.357905000 NST" size="0" pos="0" show="Jan  3, 2014 20:55:15.357905000"/>
    <field name="frame.offset_shift" showname="Time shift for this packet: 0.000000000 seconds" size="0" pos="0" show="0.000000000"/>
    <field name="frame.time_epoch" showname="Epoch Time: 1388795115.357905000 seconds" size="0" pos="0" show="1388795115.357905000"/>
    <field name="frame.time_delta" showname="Time delta from previous captured frame: 0.005210000 seconds" size="0" pos="0" show="0.005210000"/>
    <field name="frame.time_delta_displayed" showname="Time delta from previous displayed frame: 0.005210000 seconds" size="0" pos="0" show="0.005210000"/>
    <field name="frame.time_relative" showname="Time since reference or first frame: 136.384965000 seconds" size="0" pos="0" show="136.384965000"/>
    <field name="frame.number" showname="Frame Number: 342" size="0" pos="0" show="342"/>
    <field name="frame.len" showname="Frame Length: 66 bytes (528 bits)" size="0" pos="0" show="66"/>
    <field name="frame.cap_len" showname="Capture Length: 66 bytes (528 bits)" size="0" pos="0" show="66"/>
    <field name="frame.marked" showname="Frame is marked: True" size="0" pos="0" show="1"/>
    <field name="frame.ignored" showname="Frame is ignored: False" size="0" pos="0" show="0"/>
    <field name="frame.protocols" showname="Protocols in frame: eth:ip:tcp" size="0" pos="0" show="eth:ip:tcp"/>
    <field name="frame.coloring_rule.name" showname="Coloring Rule Name: HTTP" size="0" pos="0" show="HTTP"/>
    <field name="frame.coloring_rule.string" showname="Coloring Rule String: http || tcp.port == 80" size="0" pos="0" show="http || tcp.port == 80"/>
  </proto>
  <proto name="eth" showname="Ethernet II, Src: AsustekC_f6:97:3e (e0:cb:4e:f6:97:3e), Dst: Pegatron_2f:4d:48 (4c:72:b9:2f:4d:48)" size="14" pos="0">
    <field name="eth.dst" showname="Destination: Pegatron_2f:4d:48 (4c:72:b9:2f:4d:48)" size="6" pos="0" show="4c:72:b9:2f:4d:48" value="4c72b92f4d48">
      <field name="eth.addr" showname="Address: Pegatron_2f:4d:48 (4c:72:b9:2f:4d:48)" size="6" pos="0" show="4c:72:b9:2f:4d:48" value="4c72b92f4d48"/>
      <field name="eth.lg" showname=".... ..0. .... .... .... .... = LG bit: Globally unique address (factory default)" size="3" pos="0" show="0" value="0" unmaskedvalue="4c72b9"/>
      <field name="eth.ig" showname=".... ...0 .... .... .... .... = IG bit: Individual address (unicast)" size="3" pos="0" show="0" value="0" unmaskedvalue="4c72b9"/>
    </field>
    <field name="eth.src" showname="Source: AsustekC_f6:97:3e (e0:cb:4e:f6:97:3e)" size="6" pos="6" show="e0:cb:4e:f6:97:3e" value="e0cb4ef6973e">
      <field name="eth.addr" showname="Address: AsustekC_f6:97:3e (e0:cb:4e:f6:97:3e)" size="6" pos="6" show="e0:cb:4e:f6:97:3e" value="e0cb4ef6973e"/>
      <field name="eth.lg" showname=".... ..0. .... .... .... .... = LG bit: Globally unique address (factory default)" size="3" pos="6" show="0" value="0" unmaskedvalue="e0cb4e"/>
      <field name="eth.ig" showname=".... ...0 .... .... .... .... = IG bit: Individual address (unicast)" size="3" pos="6" show="0" value="0" unmaskedvalue="e0cb4e"/>
    </field>
    <field name="eth.type" showname="Type: IP (0x0800)" size="2" pos="12" show="0x0800" value="0800"/>
  </proto>
  <proto name="ip" showname="Internet Protocol Version 4, Src: 134.153.48.5 (134.153.48.5), Dst: 10.48.1.195 (10.48.1.195)" size="20" pos="14">
    <field name="ip.version" showname="Version: 4" size="1" pos="14" show="4" value="45"/>
    <field name="ip.hdr_len" showname="Header length: 20 bytes" size="1" pos="14" show="20" value="45"/>
    <field name="ip.dsfield" showname="Differentiated Services Field: 0x00 (DSCP 0x00: Default; ECN: 0x00: Not-ECT (Not ECN-Capable Transport))" size="1" pos="15" show="0" value="00">
      <field name="ip.dsfield.dscp" showname="0000 00.. = Differentiated Services Codepoint: Default (0x00)" size="1" pos="15" show="0x00" value="0" unmaskedvalue="00"/>
      <field name="ip.dsfield.ecn" showname=".... ..00 = Explicit Congestion Notification: Not-ECT (Not ECN-Capable Transport) (0x00)" size="1" pos="15" show="0x00" value="0" unmaskedvalue="00"/>
    </field>
    <field name="ip.len" showname="Total Length: 52" size="2" pos="16" show="52" value="0034"/>
    <field name="ip.id" showname="Identification: 0x0000 (0)" size="2" pos="18" show="0x0000" value="0000"/>
    <field name="ip.flags" showname="Flags: 0x02 (Don&apos;t Fragment)" size="1" pos="20" show="0x02" value="40">
      <field name="ip.flags.rb" showname="0... .... = Reserved bit: Not set" size="1" pos="20" show="0" value="40"/>
      <field name="ip.flags.df" showname=".1.. .... = Don&apos;t fragment: Set" size="1" pos="20" show="1" value="40"/>
      <field name="ip.flags.mf" showname="..0. .... = More fragments: Not set" size="1" pos="20" show="0" value="40"/>
    </field>
    <field name="ip.frag_offset" showname="Fragment offset: 0" size="2" pos="20" show="0" value="4000"/>
    <field name="ip.ttl" showname="Time to live: 56" size="1" pos="22" show="56" value="38"/>
    <field name="ip.proto" showname="Protocol: TCP (6)" size="1" pos="23" show="6" value="06"/>
    <field name="ip.checksum" showname="Header checksum: 0x8033 [correct]" size="2" pos="24" show="0x8033" value="8033">
      <field name="ip.checksum_good" showname="Good: True" size="2" pos="24" show="1" value="8033"/>
      <field name="ip.checksum_bad" showname="Bad: False" size="2" pos="24" show="0" value="8033"/>
    </field>
    <field name="ip.src" showname="Source: 134.153.48.5 (134.153.48.5)" size="4" pos="26" show="134.153.48.5" value="86993005"/>
    <field name="ip.addr" showname="Source or Destination Address: 134.153.48.5 (134.153.48.5)" hide="yes" size="4" pos="26" show="134.153.48.5" value="86993005"/>
    <field name="ip.src_host" showname="Source Host: 134.153.48.5" hide="yes" size="4" pos="26" show="134.153.48.5" value="86993005"/>
    <field name="ip.host" showname="Source or Destination Host: 134.153.48.5" hide="yes" size="4" pos="26" show="134.153.48.5" value="86993005"/>
    <field name="ip.dst" showname="Destination: 10.48.1.195 (10.48.1.195)" size="4" pos="30" show="10.48.1.195" value="0a3001c3"/>
    <field name="ip.addr" showname="Source or Destination Address: 10.48.1.195 (10.48.1.195)" hide="yes" size="4" pos="30" show="10.48.1.195" value="0a3001c3"/>
    <field name="ip.dst_host" showname="Destination Host: 10.48.1.195" hide="yes" size="4" pos="30" show="10.48.1.195" value="0a3001c3"/>
    <field name="ip.host" showname="Source or Destination Host: 10.48.1.195" hide="yes" size="4" pos="30" show="10.48.1.195" value="0a3001c3"/>
    <field name="" show="Source GeoIP: Unknown" size="4" pos="26" value="86993005"/>
    <field name="" show="Destination GeoIP: Unknown" size="4" pos="30" value="0a3001c3"/>
  </proto>
  <proto name="tcp" showname="Transmission Control Protocol, Src Port: http (80), Dst Port: 51490 (51490), Seq: 649, Ack: 749, Len: 0" size="32" pos="34">
    <field name="tcp.srcport" showname="Source port: http (80)" size="2" pos="34" show="80" value="0050"/>
    <field name="tcp.dstport" showname="Destination port: 51490 (51490)" size="2" pos="36" show="51490" value="c922"/>
    <field name="tcp.port" showname="Source or Destination Port: 80" hide="yes" size="2" pos="34" show="80" value="0050"/>
    <field name="tcp.port" showname="Source or Destination Port: 51490" hide="yes" size="2" pos="36" show="51490" value="c922"/>
    <field name="tcp.stream" showname="Stream index: 6" size="0" pos="34" show="6"/>
    <field name="tcp.len" showname="TCP Segment Len: 0" hide="yes" size="1" pos="46" show="0" value="80"/>
    <field name="tcp.seq" showname="Sequence number: 649    (relative sequence number)" size="4" pos="38" show="649" value="28afc034"/>
    <field name="tcp.ack" showname="Acknowledgment number: 749    (relative ack number)" size="4" pos="42" show="749" value="13800bec"/>
    <field name="tcp.hdr_len" showname="Header length: 32 bytes" size="1" pos="46" show="32" value="80"/>
    <field name="tcp.flags" showname="Flags: 0x010 (ACK)" size="2" pos="46" show="0x0010" value="10" unmaskedvalue="8010">
      <field name="tcp.flags.res" showname="000. .... .... = Reserved: Not set" size="1" pos="46" show="0" value="0" unmaskedvalue="80"/>
      <field name="tcp.flags.ns" showname="...0 .... .... = Nonce: Not set" size="1" pos="46" show="0" value="0" unmaskedvalue="80"/>
      <field name="tcp.flags.cwr" showname=".... 0... .... = Congestion Window Reduced (CWR): Not set" size="1" pos="47" show="0" value="0" unmaskedvalue="10"/>
      <field name="tcp.flags.ecn" showname=".... .0.. .... = ECN-Echo: Not set" size="1" pos="47" show="0" value="0" unmaskedvalue="10"/>
      <field name="tcp.flags.urg" showname=".... ..0. .... = Urgent: Not set" size="1" pos="47" show="0" value="0" unmaskedvalue="10"/>
      <field name="tcp.flags.ack" showname=".... ...1 .... = Acknowledgment: Set" size="1" pos="47" show="1" value="1" unmaskedvalue="10"/>
      <field name="tcp.flags.push" showname=".... .... 0... = Push: Not set" size="1" pos="47" show="0" value="0" unmaskedvalue="10"/>
      <field name="tcp.flags.reset" showname=".... .... .0.. = Reset: Not set" size="1" pos="47" show="0" value="0" unmaskedvalue="10"/>
      <field name="tcp.flags.syn" showname=".... .... ..0. = Syn: Not set" size="1" pos="47" show="0" value="0" unmaskedvalue="10"/>
      <field name="tcp.flags.fin" showname=".... .... ...0 = Fin: Not set" size="1" pos="47" show="0" value="0" unmaskedvalue="10"/>
    </field>
    <field name="tcp.window_size_value" showname="Window size value: 130" size="2" pos="48" show="130" value="0082"/>
    <field name="tcp.window_size" showname="Calculated window size: 16640" size="2" pos="48" show="16640" value="0082"/>
    <field name="tcp.window_size_scalefactor" showname="Window size scaling factor: 128" size="2" pos="48" show="128" value="0082"/>
    <field name="tcp.checksum" showname="Checksum: 0x391f [validation disabled]" size="2" pos="50" show="0x391f" value="391f">
      <field name="tcp.checksum_good" showname="Good Checksum: False" size="2" pos="50" show="0" value="391f"/>
      <field name="tcp.checksum_bad" showname="Bad Checksum: False" size="2" pos="50" show="0" value="391f"/>
    </field>
    <field name="tcp.options" showname="Options: (12 bytes), No-Operation (NOP), No-Operation (NOP), Timestamps" size="12" pos="54" show="01:01:08:0a:4b:b7:88:f7:00:a3:d3:76" value="0101080a4bb788f700a3d376">
      <field name="" show="No-Operation (NOP)" size="1" pos="54" value="01">
        <field name="tcp.options.type" showname="Type: 1" size="1" pos="54" show="1" value="01">
          <field name="tcp.options.type.copy" showname="0... .... = Copy on fragmentation: No" size="1" pos="54" show="0" value="0" unmaskedvalue="01"/>
          <field name="tcp.options.type.class" showname=".00. .... = Class: Control (0)" size="1" pos="54" show="0" value="0" unmaskedvalue="01"/>
          <field name="tcp.options.type.number" showname="...0 0001 = Number: No-Operation (NOP) (1)" size="1" pos="54" show="1" value="1" unmaskedvalue="01"/>
        </field>
      </field>
      <field name="" show="No-Operation (NOP)" size="1" pos="55" value="01">
        <field name="tcp.options.type" showname="Type: 1" size="1" pos="55" show="1" value="01">
          <field name="tcp.options.type.copy" showname="0... .... = Copy on fragmentation: No" size="1" pos="55" show="0" value="0" unmaskedvalue="01"/>
          <field name="tcp.options.type.class" showname=".00. .... = Class: Control (0)" size="1" pos="55" show="0" value="0" unmaskedvalue="01"/>
          <field name="tcp.options.type.number" showname="...0 0001 = Number: No-Operation (NOP) (1)" size="1" pos="55" show="1" value="1" unmaskedvalue="01"/>
        </field>
      </field>
      <field name="" show="Timestamps: TSval 1270319351, TSecr 10736502" size="10" pos="56" value="080a4bb788f700a3d376">
        <field name="tcp.option_kind" showname="Kind: Timestamp (8)" size="1" pos="56" show="8" value="08"/>
        <field name="tcp.option_len" showname="Length: 10" size="1" pos="57" show="10" value="0a"/>
        <field name="tcp.options.timestamp.tsval" showname="Timestamp value: 1270319351" size="4" pos="58" show="1270319351" value="4bb788f7"/>
        <field name="tcp.options.timestamp.tsecr" showname="Timestamp echo reply: 10736502" size="4" pos="62" show="10736502" value="00a3d376"/>
      </field>
    </field>
    <field name="tcp.analysis" showname="SEQ/ACK analysis" size="0" pos="34" show="" value="">
      <field name="tcp.analysis.acks_frame" showname="This is an ACK to the segment in frame: 341" size="0" pos="34" show="341"/>
      <field name="tcp.analysis.ack_rtt" showname="The RTT to ACK the segment was: 0.005210000 seconds" size="0" pos="34" show="0.005210000"/>
    </field>
  </proto>
</packet>

</pdml>
